Component: ARM Compiler 5.05 update 2 (build 169) Tool: armlink [4d0f33]

==============================================================================

Section Cross References

    startup.o(.text) refers to kservice.o(.text) for rt_kprintf
    startup.o(.text) refers to board.o(.text) for rt_hw_board_init
    startup.o(.text) refers to clock.o(.text) for rt_system_tick_init
    startup.o(.text) refers to object.o(.text) for rt_system_object_init
    startup.o(.text) refers to timer_1.o(.text) for rt_system_timer_init
    startup.o(.text) refers to mem.o(.text) for rt_system_heap_init
    startup.o(.text) refers to scheduler.o(.text) for rt_system_scheduler_init
    startup.o(.text) refers to application.o(.text) for rt_application_init
    startup.o(.text) refers to shell.o(.text) for finsh_system_init
    startup.o(.text) refers to idle.o(.text) for rt_thread_idle_init
    startup.o(.text) refers to context_rvds.o(.text) for rt_hw_interrupt_disable
    startup.o(.text) refers to startup.o(.conststring) for .conststring
    application.o(.text) refers to board.o(.text) for Switch_reset
    application.o(.text) refers to stm32f4_eth.o(.text) for rt_hw_stm32_eth_init
    application.o(.text) refers to ethernetif.o(.text) for eth_system_device_init
    application.o(.text) refers to sys_arch.o(.text) for lwip_system_init
    application.o(.text) refers to udp_connect.o(.text) for udp_connect_init
    application.o(.text) refers to httpd.o(.text) for httpd_init
    application.o(.text) refers to kservice.o(.text) for rt_kprintf
    application.o(.text) refers to thread.o(.text) for rt_thread_delay
    application.o(.text) refers to stm32f4_spi.o(.text) for rt_hw_spi_init
    application.o(.text) refers to interface.o(.text) for if_bus_init
    application.o(.text) refers to fpga_upgrade.o(.text) for fpag_flash_init
    application.o(.text) refers to uart_protocol.o(.text) for uart_ctl_init
    application.o(.text) refers to ipc.o(.text) for rt_mb_init
    application.o(.text) refers to application.o(.bss) for uart_ctl_thread_stack
    application.o(.text) refers to antenna_sw.o(.bss) for sem_attitude_change
    application.o(.text) refers to antenna_sw.o(.text) for antenna_swtich_task
    application.o(.text) refers to upgrade.o(.text) for uart_upgrade_thread_task
    interface.o(.text) refers to stm32f4xx_rcc.o(.text) for RCC_AHB1PeriphClockCmd
    interface.o(.text) refers to stm32f4xx_gpio.o(.text) for GPIO_SetBits
    interface.o(.text) refers to spi_bus.o(.text) for rt_spi_bus_attach_device
    interface.o(.text) refers to kservice.o(.text) for rt_kprintf
    interface.o(.text) refers to mcu_api.o(.text) for mcu_set_freq
    interface.o(.text) refers to thread.o(.text) for rt_thread_delay
    interface.o(.text) refers to interface.o(.data) for spi_cs
    interface.o(.text) refers to interface.o(.bss) for spi_device
    queue.o(.text) refers to kservice.o(.text) for rt_kprintf
    queue.o(.text) refers to queue.o(.bss) for value
    fpga_upgrade.o(.text) refers to stm32f4xx_rcc.o(.text) for RCC_AHB1PeriphClockCmd
    fpga_upgrade.o(.text) refers to stm32f4xx_gpio.o(.text) for GPIO_SetBits
    fpga_upgrade.o(.text) refers to spi_bus.o(.text) for rt_spi_bus_attach_device
    fpga_upgrade.o(.text) refers to kservice.o(.text) for rt_kprintf
    fpga_upgrade.o(.text) refers to spi_flash.o(.text) for spi_flash_probe
    fpga_upgrade.o(.text) refers to fpga_upgrade.o(.data) for spi_cs
    fpga_upgrade.o(.text) refers to fpga_upgrade.o(.bss) for spi_device
    mcu_api.o(.text) refers to spi_flash.o(.text) for spi_flash_cmd
    mcu_api.o(.text) refers to kservice.o(.text) for rt_kprintf
    mcu_api.o(.text) refers to spi_bus.o(.text) for rt_spi_transfer
    spansion.o(.text) refers to spi_flash.o(.text) for spi_flash_cmd
    spansion.o(.text) refers to thread.o(.text) for rt_thread_delay
    spansion.o(.text) refers to kservice.o(.text) for rt_kprintf
    spansion.o(.text) refers to stdlib.o(.text) for malloc
    spansion.o(.text) refers to spansion.o(.constdata) for spansion_spi_flash_table
    spansion.o(.constdata) refers to spansion.o(.conststring) for .conststring
    spi_flash.o(.text) refers to spi_bus.o(.text) for rt_spi_send_then_recv
    spi_flash.o(.text) refers to device.o(.text) for rt_device_find
    spi_flash.o(.text) refers to string.o(.text) for strcmp
    spi_flash.o(.text) refers to kservice.o(.text) for rt_kprintf
    spi_flash.o(.text) refers to spansion.o(.text) for spi_flash_probe_spansion
    spi_flash.o(.text) refers to stdlib.o(.text) for free
    upgrade.o(.text) refers to kservice.o(.text) for rt_kprintf
    upgrade.o(.text) refers to ymodem.o(.text) for Ymodem_Receive
    upgrade.o(.text) refers to thread.o(.text) for rt_thread_delay
    upgrade.o(.text) refers to uart_protocol.o(.data) for upgrade_table
    upgrade.o(.text) refers to upgrade.o(.bss) for uart_buffer
    ymodem.o(.text) refers to uart_protocol.o(.text) for Receive_Byte
    ymodem.o(.text) refers to kservice.o(.text) for rt_kprintf
    ymodem.o(.text) refers to interface.o(.text) for if_mcu_upgrade
    ymodem.o(.text) refers to fpga_upgrade.o(.text) for if_fpga_upgrade
    ymodem.o(.text) refers to common.o(.text) for Int2Str
    ymodem.o(.text) refers to ymodem.o(.bss) for packet_data
    ymodem.o(.text) refers to uart_protocol.o(.data) for upgrade_table
    antenna_sw.o(.text) refers to interface.o(.text) for if_get_dev_status
    antenna_sw.o(.text) refers to ipc.o(.text) for rt_sem_take
    antenna_sw.o(.text) refers to f2d.o(x$fpl$f2d) for __aeabi_f2d
    antenna_sw.o(.text) refers to dleqf.o(x$fpl$dleqf) for __aeabi_cdcmple
    antenna_sw.o(.text) refers to drleqf.o(x$fpl$drleqf) for __aeabi_cdrcmple
    antenna_sw.o(.text) refers to thread.o(.text) for rt_thread_delay
    antenna_sw.o(.text) refers to antenna_sw.o(.bss) for dev_status_buf
    antenna_sw.o(.text) refers to udp_connect.o(.bss) for attitude
    antenna_sw.o(.text) refers to application.o(.bss) for mb_spi_dev
    uart_protocol.o(.text) refers to scheduler.o(.text) for rt_enter_critical
    uart_protocol.o(.text) refers to queue.o(.text) for IsQueueFull
    uart_protocol.o(.text) refers to ipc.o(.text) for rt_sem_release
    uart_protocol.o(.text) refers to kservice.o(.text) for rt_kprintf
    uart_protocol.o(.text) refers to device.o(.text) for rt_device_write
    uart_protocol.o(.text) refers to interface.o(.text) for if_set_freq
    uart_protocol.o(.text) refers to uart_protocol.o(.bss) for uart_queue
    uart_protocol.o(.text) refers to uart_protocol.o(.data) for uart2_dev
    uart_protocol.o(.text) refers to rt_memcpy_w.o(.text) for __aeabi_memcpy4
    uart_protocol.o(.text) refers to thread.o(.text) for rt_thread_delay
    uart_protocol.o(.text) refers to stm32f4xx_gpio.o(.text) for GPIO_ResetBits
    uart_protocol.o(.text) refers to fpga_upgrade.o(.text) for if_fpga_erase
    board.o(.text) refers to misc.o(.text) for NVIC_SetVectorTable
    board.o(.text) refers to stm32f4xx_rcc.o(.text) for RCC_GetClocksFreq
    board.o(.text) refers to irq.o(.text) for rt_interrupt_enter
    board.o(.text) refers to clock.o(.text) for rt_tick_increase
    board.o(.text) refers to stm32f4xx_gpio.o(.text) for GPIO_SetBits
    board.o(.text) refers to thread.o(.text) for rt_thread_delay
    board.o(.text) refers to stm32f4_uart.o(.text) for rt_hw_usart_init
    board.o(.text) refers to kservice.o(.text) for rt_console_set_device
    stm32f4_eth.o(.text) refers to stm32f4x7_eth.o(.text) for ETH_MACAddressConfig
    stm32f4_eth.o(.text) refers to kservice.o(.text) for rt_kprintf
    stm32f4_eth.o(.text) refers to ipc.o(.text) for rt_sem_take
    stm32f4_eth.o(.text) refers to pbuf.o(.text) for pbuf_alloc
    stm32f4_eth.o(.text) refers to stm32f4xx_rcc.o(.text) for RCC_AHB1PeriphClockCmd
    stm32f4_eth.o(.text) refers to stm32f4xx_syscfg.o(.text) for SYSCFG_ETH_MediaInterfaceConfig
    stm32f4_eth.o(.text) refers to stm32f4xx_gpio.o(.text) for GPIO_Init
    stm32f4_eth.o(.text) refers to misc.o(.text) for NVIC_Init
    stm32f4_eth.o(.text) refers to stm32f4_eth.o(.bss) for stm32_eth_device
    stm32f4_eth.o(.text) refers to stm32f4x7_eth.o(.bss) for Tx_Buff
    stm32f4_eth.o(.text) refers to stm32f4x7_eth.o(.data) for DMATxDescToSet
    stm32f4_eth.o(.text) refers to ethernetif.o(.text) for eth_device_init
    stm32f4_i2c.o(.text) refers to stm32f4xx_tim.o(.text) for TIM_Cmd
    stm32f4_i2c.o(.text) refers to stm32f4xx_gpio.o(.text) for GPIO_ResetBits
    stm32f4_i2c.o(.text) refers to stm32f4xx_rcc.o(.text) for RCC_AHB1PeriphClockCmd
    stm32f4_i2c.o(.text) refers to i2c_bit_ops.o(.text) for rt_i2c_bit_add_bus
    stm32f4_i2c.o(.text) refers to stm32f4_i2c.o(.data) for p_data
    stm32f4_i2c.o(.text) refers to stm32f4_i2c.o(.constdata) for bit_ops
    stm32f4_i2c.o(.text) refers to stm32f4_i2c.o(.bss) for i2c_bus
    stm32f4_i2c.o(.constdata) refers to stm32f4_i2c.o(.data) for p_data
    stm32f4_i2c.o(.constdata) refers to stm32f4_i2c.o(.text) for i2c_gpio_set_sda
    stm32f4_spi.o(.text) refers to kservice.o(.text) for rt_assert_handler
    stm32f4_spi.o(.text) refers to stm32f4xx_dma.o(.text) for DMA_ITConfig
    stm32f4_spi.o(.text) refers to stm32f4xx_spi.o(.text) for SPI_I2S_DMACmd
    stm32f4_spi.o(.text) refers to stm32f4xx_gpio.o(.text) for GPIO_ResetBits
    stm32f4_spi.o(.text) refers to ipc.o(.text) for rt_sem_take
    stm32f4_spi.o(.text) refers to stm32f4xx_rcc.o(.text) for RCC_AHB1PeriphClockCmd
    stm32f4_spi.o(.text) refers to stm32f4_spi.o(.constdata) for __FUNCTION__
    stm32f4_spi.o(.text) refers to system_stm32f4xx.o(.data) for SystemCoreClock
    stm32f4_spi.o(.text) refers to stm32f4_spi.o(.data) for dummy0
    stm32f4_spi.o(.text) refers to spi_bus.o(.text) for rt_spi_bus_register
    stm32f4_spi.o(.text) refers to stm32f4_spi.o(.bss) for stm32_spi_bus_3
    stm32f4_spi.o(.data) refers to stm32f4_spi.o(.text) for configure
    stm32f4_uart.o(.rev16_text) refers (Special) to use_no_semi_2.o(.text) for __use_no_semihosting
    stm32f4_uart.o(.revsh_text) refers (Special) to use_no_semi_2.o(.text) for __use_no_semihosting
    stm32f4_uart.o(.rrx_text) refers (Special) to use_no_semi_2.o(.text) for __use_no_semihosting
    stm32f4_uart.o(.text) refers (Special) to use_no_semi_2.o(.text) for __use_no_semihosting
    stm32f4_uart.o(.text) refers to stm32f4xx_rcc.o(.text) for RCC_AHB1PeriphClockCmd
    stm32f4_uart.o(.text) refers to stm32f4xx_gpio.o(.text) for GPIO_Init
    stm32f4_uart.o(.text) refers to misc.o(.text) for NVIC_Init
    stm32f4_uart.o(.text) refers to stm32f4xx_usart.o(.text) for USART_Init
    stm32f4_uart.o(.text) refers to serial.o(.text) for rt_hw_serial_register
    stm32f4_uart.o(.text) refers to irq.o(.text) for rt_interrupt_enter
    stm32f4_uart.o(.text) refers to stm32f4_uart.o(.data) for uart1
    stm32f4_uart.o(.text) refers to stm32f4_uart.o(.bss) for uart1_device
    stm32f4_uart.o(.bss) refers (Special) to use_no_semi_2.o(.text) for __use_no_semihosting
    stm32f4_uart.o(.data) refers (Special) to use_no_semi_2.o(.text) for __use_no_semihosting
    stm32f4_uart.o(.data) refers to stm32f4_uart.o(.bss) for uart1_int_rx
    timer.o(.text) refers to stm32f4xx_rcc.o(.text) for RCC_APB1PeriphClockCmd
    timer.o(.text) refers to stm32f4xx_tim.o(.text) for TIM_TimeBaseInit
    timer.o(.text) refers to misc.o(.text) for NVIC_Init
    timer.o(.text) refers to irq.o(.text) for rt_interrupt_enter
    timer.o(.text) refers to timer.o(.data) for udp_tx_count
    i2c_bit_ops.o(.text) refers to clock.o(.text) for rt_tick_get
    i2c_bit_ops.o(.text) refers to thread.o(.text) for rt_thread_delay
    i2c_bit_ops.o(.text) refers to kservice.o(.text) for rt_kprintf
    i2c_bit_ops.o(.text) refers to i2c_bus.o(.text) for rt_i2c_bus_register
    i2c_bit_ops.o(.text) refers to i2c_bit_ops.o(.constdata) for i2c_bit_bus_ops
    i2c_bit_ops.o(.constdata) refers to i2c_bit_ops.o(.text) for i2c_bit_xfer
    i2c_bus.o(.text) refers to kservice.o(.text) for rt_assert_handler
    i2c_bus.o(.text) refers to device.o(.text) for rt_device_register
    i2c_bus.o(.text) refers to ipc.o(.text) for rt_mutex_init
    i2c_bus.o(.text) refers to rt_memcpy_v6.o(.text) for __aeabi_memcpy
    i2c_bus.o(.text) refers to thread.o(.text) for rt_thread_delay
    i2c_bus.o(.text) refers to i2c_bus.o(.constdata) for __FUNCTION__
    serial.o(.text) refers to kservice.o(.text) for rt_assert_handler
    serial.o(.text) refers to stm32f4xx_dma.o(.text) for DMA_Cmd
    serial.o(.text) refers to mempool.o(.text) for rt_mp_init
    serial.o(.text) refers to stm32f4xx_usart.o(.text) for USART_Cmd
    serial.o(.text) refers to context_rvds.o(.text) for rt_hw_interrupt_disable
    serial.o(.text) refers to rt_memcpy_v6.o(.text) for __aeabi_memcpy
    serial.o(.text) refers to serial.o(.constdata) for __FUNCTION__
    serial.o(.text) refers to device.o(.text) for rt_device_register
    spi_bus.o(.text) refers to kservice.o(.text) for rt_assert_handler
    spi_bus.o(.text) refers to ipc.o(.text) for rt_mutex_take
    spi_bus.o(.text) refers to spi_bus.o(.constdata) for __FUNCTION__
    spi_bus.o(.text) refers to device.o(.text) for rt_device_register
    cmd.o(.text) refers to kservice.o(.text) for rt_kprintf
    cmd.o(.text) refers to clock.o(.text) for rt_tick_get
    cmd.o(.text) refers to cmd.o(.conststring) for .conststring
    cmd.o(.text) refers to object.o(.data) for rt_object_container
    cmd.o(.text) refers to rt_memcpy_w.o(.text) for __aeabi_memcpy4
    cmd.o(.text) refers to string.o(.text) for strncmp
    cmd.o(.text) refers to stm32f4x7_eth.o(.text) for ETH_ReadPHYRegister
    cmd.o(.text) refers to ethernetif.o(.text) for list_if
    cmd.o(.text) refers to cmd.o(.constdata) for .constdata
    cmd.o(.text) refers to symbol.o(.data) for _syscall_table_begin
    cmd.o(.constdata) refers to cmd.o(.conststring) for .conststring
    cmd.o(FSymTab) refers to cmd.o(.rodata.name) for __fsym_hello_name
    cmd.o(FSymTab) refers to cmd.o(.text) for hello
    finsh_compiler.o(.text) refers to finsh_compiler.o(.data) for finsh_compile_pc
    finsh_compiler.o(.text) refers to finsh_error.o(.text) for finsh_error_set
    finsh_compiler.o(.text) refers to rt_memclr.o(.text) for __aeabi_memclr
    finsh_compiler.o(.text) refers to finsh_vm.o(.bss) for text_segment
    finsh_error.o(.text) refers to finsh_error.o(.data) for global_errno
    finsh_error.o(.data) refers to finsh_error.o(.conststring) for .conststring
    finsh_heap.o(.text) refers to rt_memclr_w.o(.text) for __aeabi_memclr4
    finsh_heap.o(.text) refers to finsh_heap.o(.bss) for finsh_heap
    finsh_heap.o(.text) refers to finsh_heap.o(.data) for free_list
    finsh_heap.o(.text) refers to finsh_var.o(.bss) for global_variable
    finsh_init.o(.text) refers to finsh_parser.o(.text) for finsh_parser_init
    finsh_init.o(.text) refers to finsh_node.o(.text) for finsh_node_init
    finsh_init.o(.text) refers to finsh_var.o(.text) for finsh_var_init
    finsh_init.o(.text) refers to finsh_error.o(.text) for finsh_error_init
    finsh_init.o(.text) refers to finsh_heap.o(.text) for finsh_heap_init
    finsh_init.o(.text) refers to finsh_vm.o(.bss) for finsh_vm_stack
    finsh_node.o(.text) refers to rt_memclr_w.o(.text) for __aeabi_memclr4
    finsh_node.o(.text) refers to finsh_var.o(.text) for finsh_var_lookup
    finsh_node.o(.text) refers to finsh_vm.o(.text) for finsh_syscall_lookup
    finsh_node.o(.text) refers to finsh_error.o(.text) for finsh_error_set
    finsh_node.o(.text) refers to strlen.o(.text) for strlen
    finsh_node.o(.text) refers to finsh_heap.o(.text) for finsh_heap_allocate
    finsh_node.o(.text) refers to string.o(.text) for strncpy
    finsh_node.o(.text) refers to finsh_node.o(.bss) for global_node_table
    finsh_ops.o(.text) refers to finsh_vm.o(.data) for finsh_sp
    finsh_ops.o(.constdata) refers to finsh_ops.o(.text) for OP_no_op
    finsh_parser.o(.text) refers to finsh_node.o(.text) for finsh_node_allocate
    finsh_parser.o(.text) refers to finsh_error.o(.text) for finsh_error_set
    finsh_parser.o(.text) refers to finsh_token.o(.text) for finsh_token_token
    finsh_parser.o(.text) refers to string.o(.text) for strncpy
    finsh_parser.o(.text) refers to finsh_var.o(.text) for finsh_var_insert
    finsh_parser.o(.text) refers to rt_memclr_w.o(.text) for __aeabi_memclr4
    finsh_token.o(.text) refers to rt_memclr_w.o(.text) for __aeabi_memclr4
    finsh_token.o(.text) refers to strlen.o(.text) for strlen
    finsh_token.o(.text) refers to finsh_error.o(.text) for finsh_error_set
    finsh_token.o(.text) refers to stdlib.o(.text) for atoi
    finsh_token.o(.text) refers to string.o(.text) for strcmp
    finsh_token.o(.text) refers to finsh_token.o(.constdata) for finsh_name_table
    finsh_token.o(.constdata) refers to finsh_token.o(.conststring) for .conststring
    finsh_var.o(.text) refers to rt_memclr_w.o(.text) for __aeabi_memclr4
    finsh_var.o(.text) refers to string.o(.text) for strncmp
    finsh_var.o(.text) refers to mem.o(.text) for rt_malloc
    finsh_var.o(.text) refers to kservice.o(.text) for rt_strdup
    finsh_var.o(.text) refers to strlen.o(.text) for strlen
    finsh_var.o(.text) refers to finsh_var.o(.bss) for global_variable
    finsh_var.o(.text) refers to finsh_var.o(.data) for global_sysvar_list
    finsh_var.o(.text) refers to symbol.o(.data) for _sysvar_table_begin
    finsh_vm.o(.text) refers to mem.o(.text) for rt_malloc
    finsh_vm.o(.text) refers to kservice.o(.text) for rt_strdup
    finsh_vm.o(.text) refers to string.o(.text) for strcmp
    finsh_vm.o(.text) refers to strlen.o(.text) for strlen
    finsh_vm.o(.text) refers to finsh_vm.o(.bss) for finsh_vm_stack
    finsh_vm.o(.text) refers to finsh_vm.o(.data) for finsh_sp
    finsh_vm.o(.text) refers to finsh_ops.o(.constdata) for op_table
    finsh_vm.o(.text) refers to symbol.o(.data) for _syscall_table_begin
    msh.o(.text) refers to kservice.o(.text) for rt_kprintf
    msh.o(.text) refers to string.o(.text) for strncmp
    msh.o(.text) refers to rt_memclr_w.o(.text) for __aeabi_memclr4
    msh.o(.text) refers to strlen.o(.text) for strlen
    msh.o(.text) refers to symbol.o(.data) for _syscall_table_begin
    msh.o(.text) refers to msh.o(.constdata) for __FUNCTION__
    msh.o(FSymTab) refers to msh.o(.rodata.name) for __fsym___cmd_help_name
    msh.o(FSymTab) refers to msh.o(.text) for msh_help
    msh_cmd.o(.text) refers to cmd.o(.text) for list_thread
    msh_cmd.o(.text) refers to mem.o(.text) for list_mem
    msh_cmd.o(FSymTab) refers to msh_cmd.o(.rodata.name) for __fsym___cmd_ps_name
    msh_cmd.o(FSymTab) refers to msh_cmd.o(.text) for cmd_ps
    shell.o(.text) refers to msh.o(.text) for msh_is_used
    shell.o(.text) refers to string.o(.text) for strcpy
    shell.o(.text) refers to kservice.o(.text) for rt_assert_handler
    shell.o(.text) refers to ipc.o(.text) for rt_sem_release
    shell.o(.text) refers to device.o(.text) for rt_device_find
    shell.o(.text) refers to rt_memclr.o(.text) for __aeabi_memclr
    shell.o(.text) refers to rt_memcpy_v6.o(.text) for __aeabi_memcpy
    shell.o(.text) refers to strlen.o(.text) for strlen
    shell.o(.text) refers to shell.o(.bss) for finsh_prompt
    shell.o(.text) refers to shell.o(.data) for shell
    shell.o(.text) refers to shell.o(.constdata) for __FUNCTION__
    shell.o(.text) refers to mem.o(.text) for rt_malloc
    shell.o(.text) refers to symbol.o(.data) for _syscall_table_begin
    shell.o(.text) refers to rt_memclr_w.o(.text) for __aeabi_memclr4
    shell.o(.text) refers to thread.o(.text) for rt_thread_init
    clock.o(.text) refers to context_rvds.o(.text) for rt_hw_interrupt_disable
    clock.o(.text) refers to thread.o(.text) for rt_thread_self
    clock.o(.text) refers to timer_1.o(.text) for rt_timer_check
    clock.o(.text) refers to clock.o(.data) for rt_tick
    device.o(.text) refers to thread.o(.text) for rt_thread_self
    device.o(.text) refers to scheduler.o(.text) for rt_enter_critical
    device.o(.text) refers to kservice.o(.text) for rt_strncmp
    device.o(.text) refers to object.o(.text) for rt_object_init
    device.o(.text) refers to object.o(.data) for rt_object_container
    device.o(.text) refers to device.o(.constdata) for __FUNCTION__
    idle.o(.text) refers to context_rvds.o(.text) for rt_hw_interrupt_disable
    idle.o(.text) refers to irq.o(.text) for rt_interrupt_get_nest
    idle.o(.text) refers to kservice.o(.text) for rt_kprintf
    idle.o(.text) refers to object.o(.text) for rt_object_is_systemobject
    idle.o(.text) refers to mem.o(.text) for rt_free
    idle.o(.text) refers to thread.o(.text) for rt_thread_init
    idle.o(.text) refers to idle.o(.constdata) for __FUNCTION__
    idle.o(.text) refers to scheduler.o(.data) for rt_thread_defunct
    idle.o(.text) refers to idle.o(.bss) for rt_thread_stack
    ipc.o(.text) refers to thread.o(.text) for rt_thread_suspend
    ipc.o(.text) refers to context_rvds.o(.text) for rt_hw_interrupt_disable
    ipc.o(.text) refers to kservice.o(.text) for rt_assert_handler
    ipc.o(.text) refers to object.o(.text) for rt_object_init
    ipc.o(.text) refers to irq.o(.text) for rt_interrupt_get_nest
    ipc.o(.text) refers to timer_1.o(.text) for rt_timer_control
    ipc.o(.text) refers to scheduler.o(.text) for rt_schedule
    ipc.o(.text) refers to ipc.o(.constdata) for __FUNCTION__
    ipc.o(.text) refers to mem.o(.text) for rt_malloc
    ipc.o(.text) refers to clock.o(.text) for rt_tick_get
    irq.o(.text) refers to context_rvds.o(.text) for rt_hw_interrupt_disable
    irq.o(.text) refers to irq.o(.data) for rt_interrupt_nest
    kservice.o(.text) refers to irq.o(.text) for rt_interrupt_get_nest
    kservice.o(.text) refers to thread.o(.text) for rt_thread_self
    kservice.o(.text) refers to mem.o(.text) for rt_malloc
    kservice.o(.text) refers to kservice.o(.data) for _errno
    kservice.o(.text) refers to kservice.o(.constdata) for large_digits
    kservice.o(.text) refers to device.o(.text) for rt_device_write
    kservice.o(.text) refers to kservice.o(.bss) for rt_log_buf
    mem.o(.text) refers to kservice.o(.text) for rt_assert_handler
    mem.o(.text) refers to context_rvds.o(.text) for rt_hw_interrupt_disable
    mem.o(.text) refers to irq.o(.text) for rt_interrupt_get_nest
    mem.o(.text) refers to ipc.o(.text) for rt_sem_init
    mem.o(.text) refers to mem.o(.data) for heap_ptr
    mem.o(.text) refers to mem.o(.constdata) for __FUNCTION__
    mem.o(.text) refers to mem.o(.bss) for heap_sem
    mem.o(.text) refers to mem.o(.conststring) for .conststring
    mem.o(FSymTab) refers to mem.o(.rodata.name) for __fsym_list_mem_name
    mem.o(FSymTab) refers to mem.o(.text) for list_mem
    mempool.o(.text) refers to kservice.o(.text) for rt_assert_handler
    mempool.o(.text) refers to object.o(.text) for rt_object_init
    mempool.o(.text) refers to context_rvds.o(.text) for rt_hw_interrupt_disable
    mempool.o(.text) refers to thread.o(.text) for rt_thread_resume
    mempool.o(.text) refers to irq.o(.text) for rt_interrupt_get_nest
    mempool.o(.text) refers to mem.o(.text) for rt_malloc
    mempool.o(.text) refers to clock.o(.text) for rt_tick_get
    mempool.o(.text) refers to timer_1.o(.text) for rt_timer_control
    mempool.o(.text) refers to scheduler.o(.text) for rt_schedule
    mempool.o(.text) refers to mempool.o(.constdata) for __FUNCTION__
    object.o(.text) refers to kservice.o(.text) for rt_strncpy
    object.o(.text) refers to context_rvds.o(.text) for rt_hw_interrupt_disable
    object.o(.text) refers to irq.o(.text) for rt_interrupt_get_nest
    object.o(.text) refers to mem.o(.text) for rt_malloc
    object.o(.text) refers to scheduler.o(.text) for rt_enter_critical
    object.o(.text) refers to object.o(.data) for rt_object_container
    object.o(.text) refers to object.o(.constdata) for __FUNCTION__
    scheduler.o(.text) refers to kservice.o(.text) for __rt_ffs
    scheduler.o(.text) refers to context_rvds.o(.text) for rt_hw_context_switch_to
    scheduler.o(.text) refers to scheduler.o(.data) for rt_scheduler_lock_nest
    scheduler.o(.text) refers to scheduler.o(.bss) for rt_thread_priority_table
    scheduler.o(.text) refers to irq.o(.data) for rt_interrupt_nest
    scheduler.o(.text) refers to scheduler.o(.constdata) for __FUNCTION__
    thread.o(.text) refers to context_rvds.o(.text) for rt_hw_interrupt_disable
    thread.o(.text) refers to scheduler.o(.text) for rt_schedule_remove_thread
    thread.o(.text) refers to timer_1.o(.text) for rt_timer_detach
    thread.o(.text) refers to object.o(.text) for rt_object_is_systemobject
    thread.o(.text) refers to kservice.o(.text) for rt_assert_handler
    thread.o(.text) refers to cpuport.o(.text) for rt_hw_stack_init
    thread.o(.text) refers to mem.o(.text) for rt_malloc
    thread.o(.text) refers to scheduler.o(.data) for rt_current_thread
    thread.o(.text) refers to thread.o(.constdata) for __FUNCTION__
    thread.o(.text) refers to scheduler.o(.bss) for rt_thread_priority_table
    thread.o(.text) refers to object.o(.data) for rt_object_container
    timer_1.o(.text) refers to kservice.o(.text) for rt_assert_handler
    timer_1.o(.text) refers to object.o(.text) for rt_object_init
    timer_1.o(.text) refers to context_rvds.o(.text) for rt_hw_interrupt_disable
    timer_1.o(.text) refers to clock.o(.text) for rt_tick_get
    timer_1.o(.text) refers to timer_1.o(.constdata) for __FUNCTION__
    timer_1.o(.text) refers to timer_1.o(.data) for rt_timer_list
    startup_stm32f40xx.o(STACK) refers (Special) to heapauxi.o(.text) for __use_two_region_memory
    startup_stm32f40xx.o(HEAP) refers (Special) to heapauxi.o(.text) for __use_two_region_memory
    startup_stm32f40xx.o(RESET) refers (Special) to heapauxi.o(.text) for __use_two_region_memory
    startup_stm32f40xx.o(RESET) refers to startup_stm32f40xx.o(STACK) for __initial_sp
    startup_stm32f40xx.o(RESET) refers to startup_stm32f40xx.o(.text) for Reset_Handler
    startup_stm32f40xx.o(RESET) refers to stm32f4_it.o(.text) for NMI_Handler
    startup_stm32f40xx.o(RESET) refers to context_rvds.o(.text) for HardFault_Handler
    startup_stm32f40xx.o(RESET) refers to board.o(.text) for SysTick_Handler
    startup_stm32f40xx.o(RESET) refers to timer.o(.text) for TIM3_IRQHandler
    startup_stm32f40xx.o(RESET) refers to stm32f4_uart.o(.text) for USART1_IRQHandler
    startup_stm32f40xx.o(RESET) refers to stm32f4_eth.o(.text) for ETH_IRQHandler
    startup_stm32f40xx.o(.text) refers (Special) to heapauxi.o(.text) for __use_two_region_memory
    startup_stm32f40xx.o(.text) refers to system_stm32f4xx.o(.text) for SystemInit
    startup_stm32f40xx.o(.text) refers to __main.o(!!!main) for __main
    startup_stm32f40xx.o(.text) refers to startup_stm32f40xx.o(HEAP) for Heap_Mem
    startup_stm32f40xx.o(.text) refers to startup_stm32f40xx.o(STACK) for Stack_Mem
    system_stm32f4xx.o(.text) refers to system_stm32f4xx.o(.data) for SystemCoreClock
    context_rvds.o(.text) refers to cpuport.o(.text) for rt_hw_hard_fault_exception
    context_rvds.o(.text) refers to cpuport.o(.data) for rt_thread_switch_interrupt_flag
    cpuport.o(.text) refers to kservice.o(.text) for rt_kprintf
    cpuport.o(.text) refers to thread.o(.text) for rt_thread_self
    cpuport.o(.text) refers to cmd.o(.text) for list_thread
    cpuport.o(.text) refers to cpuport.o(.data) for rt_exception_hook
    cpuport.o(.text) refers to cpuport.o(.constdata) for __FUNCTION__
    rand.o(.text) refers to rand.o(.data) for _seed
    stdlib.o(.text) refers to mem.o(.text) for rt_malloc
    string.o(.text) refers to kservice.o(.text) for rt_strlen
    string.o(.text) refers to string.o(.data) for _ctype
    string.o(.text) refers to strlen.o(.text) for strlen
    time.o(.text) refers to device.o(.text) for rt_device_find
    time.o(.text) refers to time.o(.constdata) for __spm
    time.o(.text) refers to time.o(.data) for timezone
    time.o(.text) refers to time.o(.bss) for tmp
    stm32f4xx_adc.o(.text) refers to stm32f4xx_rcc.o(.text) for RCC_APB2PeriphResetCmd
    stm32f4xx_can.o(.text) refers to stm32f4xx_rcc.o(.text) for RCC_APB1PeriphResetCmd
    stm32f4xx_dac.o(.text) refers to stm32f4xx_rcc.o(.text) for RCC_APB1PeriphResetCmd
    stm32f4xx_gpio.o(.text) refers to stm32f4xx_rcc.o(.text) for RCC_AHB1PeriphResetCmd
    stm32f4xx_i2c.o(.text) refers to stm32f4xx_rcc.o(.text) for RCC_APB1PeriphResetCmd
    stm32f4xx_pwr.o(.text) refers to stm32f4xx_rcc.o(.text) for RCC_APB1PeriphResetCmd
    stm32f4xx_rcc.o(.text) refers to stm32f4xx_rcc.o(.data) for APBAHBPrescTable
    stm32f4xx_sdio.o(.text) refers to stm32f4xx_rcc.o(.text) for RCC_APB2PeriphResetCmd
    stm32f4xx_spi.o(.text) refers to stm32f4xx_rcc.o(.text) for RCC_APB2PeriphResetCmd
    stm32f4xx_syscfg.o(.text) refers to stm32f4xx_rcc.o(.text) for RCC_APB2PeriphResetCmd
    stm32f4xx_tim.o(.text) refers to stm32f4xx_rcc.o(.text) for RCC_APB2PeriphResetCmd
    stm32f4xx_usart.o(.text) refers to stm32f4xx_rcc.o(.text) for RCC_APB2PeriphResetCmd
    stm32f4xx_wwdg.o(.text) refers to stm32f4xx_rcc.o(.text) for RCC_APB1PeriphResetCmd
    stm32f4x7_eth.o(.text) refers to stm32f4xx_rcc.o(.text) for RCC_AHB1PeriphResetCmd
    stm32f4x7_eth.o(.text) refers to stm32f4x7_eth.o(.data) for DMARxDescToGet
    stm32f4x7_eth.o(.text) refers to stm32f4x7_eth.o(.bss) for RX_Frame_Descriptor
    api_lib.o(.text) refers to api_msg.o(.text) for netconn_alloc
    api_lib.o(.text) refers to tcpip.o(.text) for tcpip_apimsg
    api_lib.o(.text) refers to kservice.o(.text) for rt_kprintf
    api_lib.o(.text) refers to sys_arch.o(.text) for sys_arch_assert
    api_lib.o(.text) refers to mem.o(.text) for rt_free
    api_lib.o(.text) refers to memp.o(.constdata) for memp_sizes
    api_msg.o(.text) refers to sys_arch.o(.text) for sys_mbox_valid
    api_msg.o(.text) refers to pbuf.o(.text) for pbuf_alloc
    api_msg.o(.text) refers to mem.o(.text) for rt_malloc
    api_msg.o(.text) refers to netbuf.o(.text) for netbuf_delete
    api_msg.o(.text) refers to kservice.o(.text) for rt_kprintf
    api_msg.o(.text) refers to tcp.o(.text) for tcp_recved
    api_msg.o(.text) refers to memp.o(.constdata) for memp_sizes
    api_msg.o(.text) refers to ip.o(.data) for current_iphdr_src
    api_msg.o(.text) refers to tcp_out.o(.text) for tcp_write
    api_msg.o(.text) refers to raw.o(.text) for raw_new
    api_msg.o(.text) refers to udp.o(.text) for udp_new
    api_msg.o(.text) refers to igmp.o(.text) for igmp_joingroup
    netbuf.o(.text) refers to mem.o(.text) for rt_malloc
    netbuf.o(.text) refers to pbuf.o(.text) for pbuf_free
    netbuf.o(.text) refers to kservice.o(.text) for rt_kprintf
    netbuf.o(.text) refers to sys_arch.o(.text) for sys_arch_assert
    netbuf.o(.text) refers to memp.o(.constdata) for memp_sizes
    netifapi.o(.text) refers to netif.o(.text) for netif_add
    netifapi.o(.text) refers to sys_arch.o(.text) for sys_sem_signal
    netifapi.o(.text) refers to tcpip.o(.text) for tcpip_netifapi
    sockets.o(.text) refers to kservice.o(.text) for _rt_errno
    sockets.o(.text) refers to sys_arch.o(.text) for sys_arch_protect
    sockets.o(.text) refers to pbuf.o(.text) for pbuf_free
    sockets.o(.text) refers to netbuf.o(.text) for netbuf_delete
    sockets.o(.text) refers to api_lib.o(.text) for netconn_accept
    sockets.o(.text) refers to def.o(.text) for lwip_htons
    sockets.o(.text) refers to rt_memcpy_v6.o(.text) for __aeabi_memcpy
    sockets.o(.text) refers to sockets.o(.bss) for sockets
    sockets.o(.text) refers to sockets.o(.data) for select_cb_list
    sockets.o(.text) refers to sockets.o(.constdata) for err_to_errno_table
    sockets.o(.text) refers to tcpip.o(.text) for tcpip_callback_with_block
    sockets.o(.text) refers to igmp.o(.text) for igmp_joingroup
    tcpip.o(.text) refers to timers.o(.text) for sys_timeouts_mbox_fetch
    tcpip.o(.text) refers to etharp.o(.text) for ethernet_input
    tcpip.o(.text) refers to ip.o(.text) for ip_input
    tcpip.o(.text) refers to mem.o(.text) for rt_free
    tcpip.o(.text) refers to kservice.o(.text) for rt_kprintf
    tcpip.o(.text) refers to sys_arch.o(.text) for sys_arch_assert
    tcpip.o(.text) refers to thread.o(.text) for rt_thread_delay
    tcpip.o(.text) refers to init.o(.text) for lwip_init
    tcpip.o(.text) refers to pbuf.o(.text) for pbuf_free
    tcpip.o(.text) refers to tcpip.o(.data) for tcpip_init_done
    tcpip.o(.text) refers to memp.o(.constdata) for memp_sizes
    sys_arch.o(.text) refers to device.o(.text) for rt_device_init
    sys_arch.o(.text) refers to thread.o(.text) for rt_thread_self
    sys_arch.o(.text) refers to kservice.o(.text) for rt_kprintf
    sys_arch.o(.text) refers to scheduler.o(.text) for rt_enter_critical
    sys_arch.o(.text) refers to netif.o(.text) for netif_add
    sys_arch.o(.text) refers to ipc.o(.text) for rt_sem_release
    sys_arch.o(.text) refers to tcpip.o(.text) for tcpip_init
    sys_arch.o(.text) refers to netifapi.o(.text) for netifapi_netif_set_addr
    sys_arch.o(.text) refers to context_rvds.o(.text) for rt_hw_interrupt_disable
    sys_arch.o(.text) refers to irq.o(.text) for rt_interrupt_get_nest
    sys_arch.o(.text) refers to clock.o(.text) for rt_tick_get
    sys_arch.o(.text) refers to sys_arch.o(.constdata) for __FUNCTION__
    sys_arch.o(.text) refers to object.o(.data) for rt_object_container
    sys_arch.o(.text) refers to netif.o(.data) for netif_default
    sys_arch.o(.text) refers to sys_arch.o(.data) for counter
    init.o(.text) refers to sys_arch.o(.text) for sys_init
    init.o(.text) refers to netif.o(.text) for netif_init
    init.o(.text) refers to sockets.o(.text) for lwip_socket_init
    init.o(.text) refers to udp.o(.text) for udp_init
    init.o(.text) refers to tcp.o(.text) for tcp_init
    init.o(.text) refers to igmp.o(.text) for igmp_init
    init.o(.text) refers to timers.o(.text) for sys_timeouts_init
    netif.o(.text) refers to tcp.o(.text) for tcp_abort
    netif.o(.text) refers to kservice.o(.text) for rt_kprintf
    netif.o(.text) refers to sys_arch.o(.text) for sys_arch_assert
    netif.o(.text) refers to igmp.o(.text) for igmp_start
    netif.o(.text) refers to etharp.o(.text) for etharp_cleanup_netif
    netif.o(.text) refers to tcp.o(.data) for tcp_active_pcbs
    netif.o(.text) refers to netif.o(.data) for netif_num
    pbuf.o(.text) refers to sys_arch.o(.text) for sys_arch_protect
    pbuf.o(.text) refers to tcp.o(.text) for tcp_segs_free
    pbuf.o(.text) refers to tcpip.o(.text) for tcpip_callback_with_block
    pbuf.o(.text) refers to kservice.o(.text) for rt_kprintf
    pbuf.o(.text) refers to mem.o(.text) for rt_free
    pbuf.o(.text) refers to pbuf.o(.data) for pbuf_free_ooseq_pending
    pbuf.o(.text) refers to tcp.o(.data) for tcp_active_pcbs
    pbuf.o(.text) refers to memp.o(.constdata) for memp_sizes
    pbuf.o(.text) refers to rt_memcpy_v6.o(.text) for __aeabi_memcpy
    pbuf.o(.text) refers to strlen.o(.text) for strlen
    raw.o(.text) refers to pbuf.o(.text) for pbuf_header
    raw.o(.text) refers to kservice.o(.text) for rt_kprintf
    raw.o(.text) refers to sys_arch.o(.text) for sys_arch_assert
    raw.o(.text) refers to ip.o(.text) for ip_route
    raw.o(.text) refers to mem.o(.text) for rt_free
    raw.o(.text) refers to rt_memclr_w.o(.text) for __aeabi_memclr4
    raw.o(.text) refers to raw.o(.data) for raw_pcbs
    raw.o(.text) refers to ip.o(.data) for current_iphdr_dest
    raw.o(.text) refers to memp.o(.constdata) for memp_sizes
    sys.o(.text) refers to sys_arch.o(.text) for sys_sem_new
    tcp.o(.text) refers to pbuf.o(.text) for pbuf_free
    tcp.o(.text) refers to mem.o(.text) for rt_free
    tcp.o(.text) refers to kservice.o(.text) for rt_kprintf
    tcp.o(.text) refers to sys_arch.o(.text) for sys_arch_assert
    tcp.o(.text) refers to tcp_out.o(.text) for tcp_zero_window_probe
    tcp.o(.text) refers to tcp.o(.data) for tcp_ticks
    tcp.o(.text) refers to tcp.o(.constdata) for tcp_persist_backoff
    tcp.o(.text) refers to timers.o(.text) for tcp_timer_needed
    tcp.o(.text) refers to ip.o(.text) for ip_route
    tcp.o(.text) refers to memp.o(.constdata) for memp_sizes
    tcp.o(.text) refers to rt_memclr_w.o(.text) for __aeabi_memclr4
    tcp.o(.constdata) refers to tcp.o(.conststring) for .conststring
    tcp.o(.constdata) refers to tcp.o(.data) for tcp_listen_pcbs
    tcp_in.o(.text) refers to def.o(.text) for lwip_ntohs
    tcp_in.o(.text) refers to tcp.o(.text) for tcp_segs_free
    tcp_in.o(.text) refers to pbuf.o(.text) for pbuf_realloc
    tcp_in.o(.text) refers to kservice.o(.text) for rt_kprintf
    tcp_in.o(.text) refers to sys_arch.o(.text) for sys_arch_assert
    tcp_in.o(.text) refers to tcp_out.o(.text) for tcp_rexmit_fast
    tcp_in.o(.text) refers to tcp_in.o(.data) for seqno
    tcp_in.o(.text) refers to tcp.o(.data) for tcp_ticks
    tcp_in.o(.text) refers to tcp_in.o(.bss) for inseg
    tcp_in.o(.text) refers to ip.o(.data) for current_iphdr_src
    tcp_in.o(.text) refers to timers.o(.text) for tcp_timer_needed
    tcp_in.o(.text) refers to ip_addr.o(.text) for ip4_addr_isbroadcast
    tcp_in.o(.text) refers to inet_chksum.o(.text) for inet_chksum_pseudo
    tcp_in.o(.text) refers to mem.o(.text) for rt_free
    tcp_out.o(.text) refers to pbuf.o(.text) for pbuf_alloc
    tcp_out.o(.text) refers to kservice.o(.text) for rt_kprintf
    tcp_out.o(.text) refers to sys_arch.o(.text) for sys_arch_assert
    tcp_out.o(.text) refers to def.o(.text) for lwip_htons
    tcp_out.o(.text) refers to mem.o(.text) for rt_malloc
    tcp_out.o(.text) refers to tcp.o(.text) for tcp_seg_free
    tcp_out.o(.text) refers to memp.o(.constdata) for memp_sizes
    tcp_out.o(.text) refers to tcp_out.o(.conststring) for .conststring
    tcp_out.o(.text) refers to rt_memcpy_v6.o(.text) for __aeabi_memcpy
    tcp_out.o(.text) refers to inet_chksum.o(.text) for inet_chksum_pseudo
    tcp_out.o(.text) refers to ip.o(.text) for ip_output
    tcp_out.o(.text) refers to tcp.o(.data) for tcp_ticks
    tcp_out.o(.text) refers to tcp_in.o(.data) for tcp_input_pcb
    timers.o(.text) refers to mem.o(.text) for rt_malloc
    timers.o(.text) refers to kservice.o(.text) for rt_kprintf
    timers.o(.text) refers to sys_arch.o(.text) for sys_arch_assert
    timers.o(.text) refers to tcp.o(.text) for tcp_tmr
    timers.o(.text) refers to etharp.o(.text) for etharp_tmr
    timers.o(.text) refers to igmp.o(.text) for igmp_tmr
    timers.o(.text) refers to memp.o(.constdata) for memp_sizes
    timers.o(.text) refers to timers.o(.data) for next_timeout
    timers.o(.text) refers to tcp.o(.data) for tcp_active_pcbs
    udp.o(.text) refers to pbuf.o(.text) for pbuf_header
    udp.o(.text) refers to ip_addr.o(.text) for ip4_addr_isbroadcast
    udp.o(.text) refers to def.o(.text) for lwip_ntohs
    udp.o(.text) refers to inet_chksum.o(.text) for inet_chksum_pseudo
    udp.o(.text) refers to kservice.o(.text) for rt_kprintf
    udp.o(.text) refers to sys_arch.o(.text) for sys_arch_assert
    udp.o(.text) refers to icmp.o(.text) for icmp_dest_unreach
    udp.o(.text) refers to ip.o(.text) for ip_output_if
    udp.o(.text) refers to udp.o(.data) for udp_port
    udp.o(.text) refers to ip.o(.data) for current_iphdr_dest
    udp.o(.text) refers to mem.o(.text) for rt_free
    udp.o(.text) refers to rt_memclr_w.o(.text) for __aeabi_memclr4
    udp.o(.text) refers to memp.o(.constdata) for memp_sizes
    icmp.o(.text) refers to pbuf.o(.text) for pbuf_header
    icmp.o(.text) refers to ip_addr.o(.text) for ip4_addr_isbroadcast
    icmp.o(.text) refers to inet_chksum.o(.text) for inet_chksum_pbuf
    icmp.o(.text) refers to kservice.o(.text) for rt_kprintf
    icmp.o(.text) refers to sys_arch.o(.text) for sys_arch_assert
    icmp.o(.text) refers to ip.o(.text) for ip_output_if
    icmp.o(.text) refers to rt_memcpy_v6.o(.text) for __aeabi_memcpy
    icmp.o(.text) refers to ip.o(.data) for current_iphdr_dest
    igmp.o(.text) refers to mem.o(.text) for rt_malloc
    igmp.o(.text) refers to rand.o(.text) for rand
    igmp.o(.text) refers to pbuf.o(.text) for pbuf_header
    igmp.o(.text) refers to inet_chksum.o(.text) for inet_chksum
    igmp.o(.text) refers to ip.o(.text) for ip_output_if_opt
    igmp.o(.text) refers to kservice.o(.text) for rt_kprintf
    igmp.o(.text) refers to sys_arch.o(.text) for sys_arch_assert
    igmp.o(.text) refers to igmp.o(.data) for allsystems
    igmp.o(.text) refers to memp.o(.constdata) for memp_sizes
    igmp.o(.text) refers to ip_addr.o(.constdata) for ip_addr_any
    igmp.o(.text) refers to netif.o(.data) for netif_list
    inet_chksum.o(.text) refers to def.o(.text) for lwip_htons
    inet_chksum.o(.text) refers to kservice.o(.text) for rt_kprintf
    inet_chksum.o(.text) refers to sys_arch.o(.text) for sys_arch_assert
    ip.o(.text) refers to pbuf.o(.text) for pbuf_free
    ip.o(.text) refers to def.o(.text) for lwip_ntohs
    ip.o(.text) refers to inet_chksum.o(.text) for inet_chksum
    ip.o(.text) refers to igmp.o(.text) for igmp_lookfor_group
    ip.o(.text) refers to ip_addr.o(.text) for ip4_addr_isbroadcast
    ip.o(.text) refers to raw.o(.text) for raw_input
    ip.o(.text) refers to udp.o(.text) for udp_input
    ip.o(.text) refers to tcp_in.o(.text) for tcp_input
    ip.o(.text) refers to icmp.o(.text) for icmp_input
    ip.o(.text) refers to kservice.o(.text) for rt_kprintf
    ip.o(.text) refers to sys_arch.o(.text) for sys_arch_assert
    ip.o(.text) refers to rt_memcpy_v6.o(.text) for __aeabi_memcpy
    ip.o(.text) refers to rt_memclr.o(.text) for __aeabi_memclr
    ip.o(.text) refers to netif.o(.data) for netif_list
    ip.o(.text) refers to ip.o(.data) for current_iphdr_dest
    ip_addr.o(.text) refers to def.o(.text) for lwip_htonl
    ip_addr.o(.text) refers to kservice.o(.text) for rt_kprintf
    ip_addr.o(.text) refers to sys_arch.o(.text) for sys_arch_assert
    ip_addr.o(.text) refers to ip_addr.o(.bss) for str
    etharp.o(.text) refers to kservice.o(.text) for rt_kprintf
    etharp.o(.text) refers to sys_arch.o(.text) for sys_arch_assert
    etharp.o(.text) refers to pbuf.o(.text) for pbuf_free
    etharp.o(.text) refers to mem.o(.text) for rt_free
    etharp.o(.text) refers to ip_addr.o(.text) for ip4_addr_isbroadcast
    etharp.o(.text) refers to etharp.o(.bss) for arp_table
    etharp.o(.text) refers to etharp.o(.conststring) for .conststring
    etharp.o(.text) refers to def.o(.text) for lwip_htons
    etharp.o(.text) refers to etharp.o(.constdata) for ethzero
    etharp.o(.text) refers to memcmp.o(.text) for memcmp
    etharp.o(.text) refers to ip.o(.text) for ip_input
    etharp.o(.text) refers to etharp.o(.data) for etharp_cached_entry
    etharp.o(.text) refers to memp.o(.constdata) for memp_sizes
    ethernetif.o(.text) refers to ipc.o(.text) for rt_mb_send
    ethernetif.o(.text) refers to device.o(.text) for rt_device_init
    ethernetif.o(.text) refers to netif.o(.text) for netif_set_default
    ethernetif.o(.text) refers to mem.o(.text) for rt_malloc
    ethernetif.o(.text) refers to kservice.o(.text) for rt_kprintf
    ethernetif.o(.text) refers to thread.o(.text) for rt_thread_find
    ethernetif.o(.text) refers to netifapi.o(.text) for netifapi_netif_add
    ethernetif.o(.text) refers to context_rvds.o(.text) for rt_hw_interrupt_disable
    ethernetif.o(.text) refers to pbuf.o(.text) for pbuf_free
    ethernetif.o(.text) refers to sys_arch.o(.text) for sys_arch_assert
    ethernetif.o(.text) refers to scheduler.o(.text) for rt_enter_critical
    ethernetif.o(.text) refers to ethernetif.o(.bss) for eth_tx_thread_mb
    ethernetif.o(.text) refers to netif.o(.data) for netif_default
    ethernetif.o(.text) refers to etharp.o(.text) for etharp_output
    ethernetif.o(.text) refers to tcpip.o(.text) for tcpip_input
    ethernetif.o(.text) refers to ethernetif.o(.constdata) for __FUNCTION__
    ethernetif.o(.text) refers to ip_addr.o(.text) for ipaddr_ntoa
    ethernetif.o(.text) refers to rt_memcpy_v6.o(.text) for __aeabi_memcpy
    ethernetif.o(.text) refers to stm32f4x7_eth.o(.text) for ETH_Prepare_Transmit_Descriptors
    ethernetif.o(.text) refers to stm32f4x7_eth.o(.data) for DMATxDescToSet
    ethernetif.o(.text) refers to stm32f4x7_eth.o(.bss) for Tx_Buff
    udp_connect.o(.text) refers to _printf_percent.o(.ARM.Collect$$_printf_percent$$00000000) for _printf_percent
    udp_connect.o(.text) refers to _printf_f.o(.ARM.Collect$$_printf_percent$$00000003) for _printf_f
    udp_connect.o(.text) refers to printf1.o(x$fpl$printf1) for _printf_fp_dec
    udp_connect.o(.text) refers to _printf_d.o(.ARM.Collect$$_printf_percent$$00000009) for _printf_d
    udp_connect.o(.text) refers to _printf_dec.o(.text) for _printf_int_dec
    udp_connect.o(.text) refers to rt_memcpy_v6.o(.text) for __aeabi_memcpy
    udp_connect.o(.text) refers to rt_memclr.o(.text) for __aeabi_memclr
    udp_connect.o(.text) refers to memcmp.o(.text) for memcmp
    udp_connect.o(.text) refers to udp_connect.o(.constdata) for mavlink_sha256_constant_256
    udp_connect.o(.text) refers to rt_memcpy_w.o(.text) for __aeabi_memcpy4
    udp_connect.o(.text) refers to sockets.o(.text) for lwip_socket
    udp_connect.o(.text) refers to noretval__2printf.o(.text) for __2printf
    udp_connect.o(.text) refers to def.o(.text) for lwip_htons
    udp_connect.o(.text) refers to ip_addr.o(.text) for ipaddr_addr
    udp_connect.o(.text) refers to kservice.o(.text) for rt_kprintf
    udp_connect.o(.text) refers to interface.o(.text) for if_set_freq
    udp_connect.o(.text) refers to ipc.o(.text) for rt_sem_take
    udp_connect.o(.text) refers to atan2f.o(i.__hardfp_atan2f) for __hardfp_atan2f
    udp_connect.o(.text) refers to udp_connect.o(.bss) for udp_con_struct2
    udp_connect.o(.text) refers to udp_connect.o(.data) for truck_len
    udp_connect.o(.text) refers to antenna_sw.o(.bss) for dev_status_buf
    udp_connect.o(.text) refers to application.o(.bss) for mb_spi_dev
    udp_connect.o(.text) refers to f2d.o(x$fpl$f2d) for __aeabi_f2d
    udp_connect.o(.text) refers to asin.o(i.__hardfp_asin) for __hardfp_asin
    udp_connect.o(.text) refers to dmul.o(x$fpl$dmul) for __aeabi_dmul
    udp_connect.o(.text) refers to ddiv.o(x$fpl$ddiv) for __aeabi_ddiv
    udp_connect.o(.text) refers to thread.o(.text) for rt_thread_delay
    udp_connect.o(.text) refers to rt_memclr_w.o(.text) for __aeabi_memclr4
    udp_connect.o(.text) refers to pbuf.o(.text) for pbuf_free
    udp_connect.o(.text) refers to udp.o(.text) for udp_disconnect
    udp_connect.o(.text) refers to igmp.o(.text) for igmp_joingroup
    udp_connect.o(.text) refers to mem.o(.text) for rt_malloc
    udp_connect.o(.text) refers to noretval__2sprintf.o(.text) for __2sprintf
    udp_connect.o(.text) refers to strlen.o(.text) for strlen
    udp_connect.o(.text) refers to ip_addr.o(.constdata) for ip_addr_any
    httpd.o(.text) refers to strlen.o(.text) for strlen
    httpd.o(.text) refers to string.o(.text) for strncmp
    httpd.o(.text) refers to mem.o(.text) for rt_malloc
    httpd.o(.text) refers to rt_memclr_w.o(.text) for __aeabi_memclr4
    httpd.o(.text) refers to fs.o(.text) for fs_close
    httpd.o(.text) refers to kservice.o(.text) for rt_kprintf
    httpd.o(.text) refers to sys_arch.o(.text) for sys_arch_assert
    httpd.o(.text) refers to tcp_out.o(.text) for tcp_write
    httpd.o(.text) refers to rt_memcpy_v6.o(.text) for __aeabi_memcpy
    httpd.o(.text) refers to httpd.o(.data) for g_pfnSSIHandler
    httpd.o(.text) refers to httpd.o(.constdata) for g_pcTagLeadIn
    httpd.o(.text) refers to tcp.o(.text) for tcp_arg
    httpd.o(.text) refers to strstr.o(.text) for strstr
    httpd.o(.text) refers to pbuf.o(.text) for pbuf_cat
    httpd.o(.text) refers to httpd.o(.bss) for httpd_req_buf
    httpd.o(.text) refers to httpd_cgi_ssi.o(.text) for httpd_ssi_init
    httpd.o(.text) refers to ip_addr.o(.constdata) for ip_addr_any
    httpd.o(.constdata) refers to httpd.o(.conststring) for .conststring
    httpd.o(.data) refers to httpd.o(.conststring) for .conststring
    fs.o(.text) refers to string.o(.text) for strcmp
    fs.o(.text) refers to rt_memcpy_v6.o(.text) for __aeabi_memcpy
    fs.o(.text) refers to fs.o(.bss) for fs_memory
    fs.o(.text) refers to fs.o(.constdata) for file__tuchuan_png
    httpd_cgi_ssi.o(.text) refers to string.o(.text) for strcmp
    httpd_cgi_ssi.o(.text) refers to antenna_sw.o(.bss) for dev_status_buf
    httpd_cgi_ssi.o(.text) refers to strlen.o(.text) for strlen
    httpd_cgi_ssi.o(.text) refers to rt_memcpy_v6.o(.text) for __aeabi_memcpy
    httpd_cgi_ssi.o(.text) refers to interface.o(.text) for if_set_freq
    httpd_cgi_ssi.o(.text) refers to kservice.o(.text) for rt_kprintf
    httpd_cgi_ssi.o(.text) refers to httpd_cgi_ssi.o(.constdata) for downlink
    httpd_cgi_ssi.o(.text) refers to httpd_cgi_ssi.o(.data) for cgibuf
    httpd_cgi_ssi.o(.text) refers to httpd.o(.text) for http_set_ssi_handler
    httpd_cgi_ssi.o(.constdata) refers to httpd_cgi_ssi.o(.conststring) for .conststring
    httpd_cgi_ssi.o(.constdata) refers to httpd_cgi_ssi.o(.text) for CONFIG_CGI_Handler
    httpd_cgi_ssi.o(.data) refers to httpd_cgi_ssi.o(.conststring) for .conststring
    use_no_semi_2.o(.text) refers (Special) to use_no_semi.o(.text) for __use_no_semihosting_swi
    __2printf.o(.text) refers to _printf_char_file.o(.text) for _printf_char_file
    __2printf.o(.text) refers to stm32f4_uart.o(.data) for __stdout
    __2sprintf.o(.text) refers to _printf_char_common.o(.text) for _printf_char_common
    __2sprintf.o(.text) refers to _sputc.o(.text) for _sputc
    noretval__2printf.o(.text) refers to _printf_char_file.o(.text) for _printf_char_file
    noretval__2printf.o(.text) refers to stm32f4_uart.o(.data) for __stdout
    noretval__2sprintf.o(.text) refers to _printf_char_common.o(.text) for _printf_char_common
    noretval__2sprintf.o(.text) refers to _sputc.o(.text) for _sputc
    __printf.o(.text) refers to _printf_percent.o(.ARM.Collect$$_printf_percent$$00000000) for _printf_percent
    _printf_dec.o(.text) refers to _printf_intcommon.o(.text) for _printf_int_common
    __printf_flags.o(.text) refers to _printf_percent.o(.ARM.Collect$$_printf_percent$$00000000) for _printf_percent
    __printf_flags.o(.text) refers to __printf_flags.o(.constdata) for .constdata
    __printf_ss.o(.text) refers to _printf_percent.o(.ARM.Collect$$_printf_percent$$00000000) for _printf_percent
    __printf_flags_ss.o(.text) refers to _printf_percent.o(.ARM.Collect$$_printf_percent$$00000000) for _printf_percent
    __printf_flags_ss.o(.text) refers to __printf_flags_ss.o(.constdata) for .constdata
    __printf_wp.o(.text) refers to __printf_wp.o(i._is_digit) for _is_digit
    __printf_wp.o(.text) refers to _printf_percent.o(.ARM.Collect$$_printf_percent$$00000000) for _printf_percent
    __printf_flags_wp.o(.text) refers to __printf_wp.o(i._is_digit) for _is_digit
    __printf_flags_wp.o(.text) refers to _printf_percent.o(.ARM.Collect$$_printf_percent$$00000000) for _printf_percent
    __printf_flags_wp.o(.text) refers to __printf_flags_wp.o(.constdata) for .constdata
    __printf_ss_wp.o(.text) refers to __printf_wp.o(i._is_digit) for _is_digit
    __printf_ss_wp.o(.text) refers to _printf_percent.o(.ARM.Collect$$_printf_percent$$00000000) for _printf_percent
    __printf_flags_ss_wp.o(.text) refers to __printf_wp.o(i._is_digit) for _is_digit
    __printf_flags_ss_wp.o(.text) refers to _printf_percent.o(.ARM.Collect$$_printf_percent$$00000000) for _printf_percent
    __printf_flags_ss_wp.o(.text) refers to __printf_flags_ss_wp.o(.constdata) for .constdata
    _printf_d.o(.ARM.Collect$$_printf_percent$$00000009) refers (Weak) to _printf_dec.o(.text) for _printf_int_dec
    _printf_f.o(.ARM.Collect$$_printf_percent$$00000003) refers (Weak) to printf1.o(x$fpl$printf1) for _printf_fp_dec
    _printf_percent.o(.ARM.Collect$$_printf_percent$$00000000) refers (Special) to _printf_percent_end.o(.ARM.Collect$$_printf_percent$$00000017) for _printf_percent_end
    rt_memcpy_v6.o(.text) refers to rt_memcpy_w.o(.text) for __aeabi_memcpy4
    rt_memclr.o(.text) refers to rt_memclr_w.o(.text) for _memset_w
    __main.o(!!!main) refers to __rtentry.o(.ARM.Collect$$rtentry$$00000000) for __rt_entry
    ddiv.o(x$fpl$drdiv) refers (Special) to usenofp.o(x$fpl$usenofp) for __I$use$fp
    ddiv.o(x$fpl$drdiv) refers to ddiv.o(x$fpl$ddiv) for ddiv_entry
    ddiv.o(x$fpl$ddiv) refers (Special) to usenofp.o(x$fpl$usenofp) for __I$use$fp
    ddiv.o(x$fpl$ddiv) refers to dretinf.o(x$fpl$dretinf) for __fpl_dretinf
    ddiv.o(x$fpl$ddiv) refers to dnaninf.o(x$fpl$dnaninf) for __fpl_dnaninf
    dleqf.o(x$fpl$dleqf) refers (Special) to usenofp.o(x$fpl$usenofp) for __I$use$fp
    dleqf.o(x$fpl$dleqf) refers to dnaninf.o(x$fpl$dnaninf) for __fpl_dnaninf
    dleqf.o(x$fpl$dleqf) refers to dcmpi.o(x$fpl$dcmpinf) for __fpl_dcmp_Inf
    dmul.o(x$fpl$dmul) refers (Special) to usenofp.o(x$fpl$usenofp) for __I$use$fp
    dmul.o(x$fpl$dmul) refers to dretinf.o(x$fpl$dretinf) for __fpl_dretinf
    dmul.o(x$fpl$dmul) refers to dnaninf.o(x$fpl$dnaninf) for __fpl_dnaninf
    drleqf.o(x$fpl$drleqf) refers (Special) to usenofp.o(x$fpl$usenofp) for __I$use$fp
    drleqf.o(x$fpl$drleqf) refers to dleqf.o(x$fpl$dleqf) for __fpl_dcmple_InfNaN
    f2d.o(x$fpl$f2d) refers (Special) to usenofp.o(x$fpl$usenofp) for __I$use$fp
    f2d.o(x$fpl$f2d) refers to fnaninf.o(x$fpl$fnaninf) for __fpl_fnaninf
    f2d.o(x$fpl$f2d) refers to dretinf.o(x$fpl$dretinf) for __fpl_dretinf
    printf1.o(x$fpl$printf1) refers to _printf_fp_dec.o(.text) for _printf_fp_dec_real
    asin.o(i.__hardfp_asin) refers (Special) to usenofp.o(x$fpl$usenofp) for __I$use$fp
    asin.o(i.__hardfp_asin) refers to dunder.o(i.__mathlib_dbl_infnan) for __mathlib_dbl_infnan
    asin.o(i.__hardfp_asin) refers to dmul.o(x$fpl$dmul) for __aeabi_dmul
    asin.o(i.__hardfp_asin) refers to daddsub_clz.o(x$fpl$dadd) for __aeabi_dadd
    asin.o(i.__hardfp_asin) refers to _rserrno.o(.text) for __set_errno
    asin.o(i.__hardfp_asin) refers to dunder.o(i.__mathlib_dbl_invalid) for __mathlib_dbl_invalid
    asin.o(i.__hardfp_asin) refers to fpclassify.o(i.__ARM_fpclassify) for __ARM_fpclassify
    asin.o(i.__hardfp_asin) refers to dunder.o(i.__mathlib_dbl_underflow) for __mathlib_dbl_underflow
    asin.o(i.__hardfp_asin) refers to poly.o(i.__kernel_poly) for __kernel_poly
    asin.o(i.__hardfp_asin) refers to ddiv.o(x$fpl$ddiv) for __aeabi_ddiv
    asin.o(i.__hardfp_asin) refers to fabs.o(i.fabs) for fabs
    asin.o(i.__hardfp_asin) refers to daddsub_clz.o(x$fpl$drsb) for __aeabi_drsub
    asin.o(i.__hardfp_asin) refers to sqrt.o(i.sqrt) for sqrt
    asin.o(i.__hardfp_asin) refers to daddsub_clz.o(x$fpl$dsub) for __aeabi_dsub
    asin.o(i.__hardfp_asin) refers to basic.o(x$fpl$basic) for __aeabi_dneg
    asin.o(i.__hardfp_asin) refers to asin.o(.constdata) for .constdata
    asin.o(i.__softfp_asin) refers (Special) to usenofp.o(x$fpl$usenofp) for __I$use$fp
    asin.o(i.__softfp_asin) refers to asin.o(i.__hardfp_asin) for __hardfp_asin
    asin.o(i.asin) refers (Special) to usenofp.o(x$fpl$usenofp) for __I$use$fp
    asin.o(i.asin) refers to asin.o(i.__hardfp_asin) for __hardfp_asin
    asin.o(.constdata) refers (Special) to usenofp.o(x$fpl$usenofp) for __I$use$fp
    asin_x.o(i.____hardfp_asin$lsc) refers (Special) to usenofp.o(x$fpl$usenofp) for __I$use$fp
    asin_x.o(i.____hardfp_asin$lsc) refers to dunder.o(i.__mathlib_dbl_infnan) for __mathlib_dbl_infnan
    asin_x.o(i.____hardfp_asin$lsc) refers to dmul.o(x$fpl$dmul) for __aeabi_dmul
    asin_x.o(i.____hardfp_asin$lsc) refers to daddsub_clz.o(x$fpl$dadd) for __aeabi_dadd
    asin_x.o(i.____hardfp_asin$lsc) refers to _rserrno.o(.text) for __set_errno
    asin_x.o(i.____hardfp_asin$lsc) refers to poly.o(i.__kernel_poly) for __kernel_poly
    asin_x.o(i.____hardfp_asin$lsc) refers to ddiv.o(x$fpl$ddiv) for __aeabi_ddiv
    asin_x.o(i.____hardfp_asin$lsc) refers to fabs.o(i.fabs) for fabs
    asin_x.o(i.____hardfp_asin$lsc) refers to daddsub_clz.o(x$fpl$drsb) for __aeabi_drsub
    asin_x.o(i.____hardfp_asin$lsc) refers to sqrt.o(i.sqrt) for sqrt
    asin_x.o(i.____hardfp_asin$lsc) refers to daddsub_clz.o(x$fpl$dsub) for __aeabi_dsub
    asin_x.o(i.____hardfp_asin$lsc) refers to basic.o(x$fpl$basic) for __aeabi_dneg
    asin_x.o(i.____hardfp_asin$lsc) refers to asin_x.o(.constdata) for .constdata
    asin_x.o(i.____softfp_asin$lsc) refers (Special) to usenofp.o(x$fpl$usenofp) for __I$use$fp
    asin_x.o(i.____softfp_asin$lsc) refers to asin_x.o(i.____hardfp_asin$lsc) for ____hardfp_asin$lsc
    asin_x.o(i.__asin$lsc) refers (Special) to usenofp.o(x$fpl$usenofp) for __I$use$fp
    asin_x.o(i.__asin$lsc) refers to asin_x.o(i.____hardfp_asin$lsc) for ____hardfp_asin$lsc
    asin_x.o(.constdata) refers (Special) to usenofp.o(x$fpl$usenofp) for __I$use$fp
    atan2f.o(i.__hardfp_atan2f) refers (Special) to usenofp.o(x$fpl$usenofp) for __I$use$fp
    atan2f.o(i.__hardfp_atan2f) refers to fpclassifyf.o(i.__ARM_fpclassifyf) for __ARM_fpclassifyf
    atan2f.o(i.__hardfp_atan2f) refers to funder.o(i.__mathlib_flt_underflow) for __mathlib_flt_underflow
    atan2f.o(i.__hardfp_atan2f) refers to funder.o(i.__mathlib_flt_infnan2) for __mathlib_flt_infnan2
    atan2f.o(i.__softfp_atan2f) refers (Special) to usenofp.o(x$fpl$usenofp) for __I$use$fp
    atan2f.o(i.__softfp_atan2f) refers to atan2f.o(i.__hardfp_atan2f) for __hardfp_atan2f
    atan2f.o(i.atan2f) refers (Special) to usenofp.o(x$fpl$usenofp) for __I$use$fp
    atan2f.o(i.atan2f) refers to atan2f.o(i.__hardfp_atan2f) for __hardfp_atan2f
    atan2f_x.o(i.____hardfp_atan2f$lsc) refers (Special) to usenofp.o(x$fpl$usenofp) for __I$use$fp
    atan2f_x.o(i.____hardfp_atan2f$lsc) refers to funder.o(i.__mathlib_flt_infnan2) for __mathlib_flt_infnan2
    atan2f_x.o(i.____hardfp_atan2f$lsc) refers to _rserrno.o(.text) for __set_errno
    atan2f_x.o(i.____softfp_atan2f$lsc) refers (Special) to usenofp.o(x$fpl$usenofp) for __I$use$fp
    atan2f_x.o(i.____softfp_atan2f$lsc) refers to atan2f_x.o(i.____hardfp_atan2f$lsc) for ____hardfp_atan2f$lsc
    atan2f_x.o(i.__atan2f$lsc) refers (Special) to usenofp.o(x$fpl$usenofp) for __I$use$fp
    atan2f_x.o(i.__atan2f$lsc) refers to atan2f_x.o(i.____hardfp_atan2f$lsc) for ____hardfp_atan2f$lsc
    __rtentry.o(.ARM.Collect$$rtentry$$00000000) refers (Special) to __rtentry2.o(.ARM.Collect$$rtentry$$0000000A) for __rt_entry_li
    __rtentry.o(.ARM.Collect$$rtentry$$00000000) refers (Special) to __rtentry2.o(.ARM.Collect$$rtentry$$0000000D) for __rt_entry_main
    __rtentry.o(.ARM.Collect$$rtentry$$00000000) refers (Special) to __rtentry2.o(.ARM.Collect$$rtentry$$0000000C) for __rt_entry_postli_1
    __rtentry.o(.ARM.Collect$$rtentry$$00000000) refers (Special) to __rtentry2.o(.ARM.Collect$$rtentry$$00000009) for __rt_entry_postsh_1
    __rtentry.o(.ARM.Collect$$rtentry$$00000000) refers (Special) to __rtentry2.o(.ARM.Collect$$rtentry$$00000002) for __rt_entry_presh_1
    __rtentry.o(.ARM.Collect$$rtentry$$00000000) refers (Special) to __rtentry4.o(.ARM.Collect$$rtentry$$00000004) for __rt_entry_sh
    _rserrno.o(.text) refers to rt_errno_addr_intlibspace.o(.text) for __aeabi_errno_addr
    _printf_fp_dec.o(.text) refers (Special) to usenofp.o(x$fpl$usenofp) for __I$use$fp
    _printf_fp_dec.o(.text) refers (Special) to lc_numeric_c.o(locale$$code) for _get_lc_numeric
    _printf_fp_dec.o(.text) refers to bigflt0.o(.text) for _btod_etento
    _printf_fp_dec.o(.text) refers to btod.o(CL$$btod_d2e) for _btod_d2e
    _printf_fp_dec.o(.text) refers to btod.o(CL$$btod_ediv) for _btod_ediv
    _printf_fp_dec.o(.text) refers to btod.o(CL$$btod_emul) for _btod_emul
    _printf_fp_dec.o(.text) refers to lludiv10.o(.text) for _ll_udiv10
    _printf_fp_dec.o(.text) refers to fpclassify.o(i.__ARM_fpclassify) for __ARM_fpclassify
    _printf_fp_dec.o(.text) refers to _printf_fp_infnan.o(.text) for _printf_fp_infnan
    _printf_fp_dec.o(.text) refers to rt_locale_intlibspace.o(.text) for __rt_locale
    _printf_char_common.o(.text) refers to __printf.o(.text) for __printf
    _printf_char_file.o(.text) refers to _printf_char_common.o(.text) for _printf_char_common
    _printf_char_file.o(.text) refers to ferror.o(.text) for ferror
    _printf_char_file.o(.text) refers to stm32f4_uart.o(.text) for fputc
    basic.o(x$fpl$basic) refers (Special) to usenofp.o(x$fpl$usenofp) for __I$use$fp
    daddsub_clz.o(x$fpl$dadd) refers (Special) to usenofp.o(x$fpl$usenofp) for __I$use$fp
    daddsub_clz.o(x$fpl$dadd) refers to daddsub_clz.o(x$fpl$dsub) for _dsub1
    daddsub_clz.o(x$fpl$dadd) refers to dretinf.o(x$fpl$dretinf) for __fpl_dretinf
    daddsub_clz.o(x$fpl$dadd) refers to dnaninf.o(x$fpl$dnaninf) for __fpl_dnaninf
    daddsub_clz.o(x$fpl$drsb) refers (Special) to usenofp.o(x$fpl$usenofp) for __I$use$fp
    daddsub_clz.o(x$fpl$drsb) refers to daddsub_clz.o(x$fpl$dadd) for _dadd1
    daddsub_clz.o(x$fpl$drsb) refers to daddsub_clz.o(x$fpl$dsub) for _dsub1
    daddsub_clz.o(x$fpl$dsub) refers (Special) to usenofp.o(x$fpl$usenofp) for __I$use$fp
    daddsub_clz.o(x$fpl$dsub) refers to daddsub_clz.o(x$fpl$dadd) for _dadd1
    daddsub_clz.o(x$fpl$dsub) refers to dnaninf.o(x$fpl$dnaninf) for __fpl_dnaninf
    dcmpi.o(x$fpl$dcmpinf) refers (Special) to usenofp.o(x$fpl$usenofp) for __I$use$fp
    dnaninf.o(x$fpl$dnaninf) refers (Special) to usenofp.o(x$fpl$usenofp) for __I$use$fp
    dretinf.o(x$fpl$dretinf) refers (Special) to usenofp.o(x$fpl$usenofp) for __I$use$fp
    fnaninf.o(x$fpl$fnaninf) refers (Special) to usenofp.o(x$fpl$usenofp) for __I$use$fp
    dunder.o(i.__mathlib_dbl_divzero) refers to ddiv.o(x$fpl$ddiv) for __aeabi_ddiv
    dunder.o(i.__mathlib_dbl_infnan) refers to daddsub_clz.o(x$fpl$dadd) for __aeabi_dadd
    dunder.o(i.__mathlib_dbl_infnan2) refers to daddsub_clz.o(x$fpl$dadd) for __aeabi_dadd
    dunder.o(i.__mathlib_dbl_invalid) refers to ddiv.o(x$fpl$ddiv) for __aeabi_ddiv
    dunder.o(i.__mathlib_dbl_overflow) refers to dmul.o(x$fpl$dmul) for __aeabi_dmul
    dunder.o(i.__mathlib_dbl_posinfnan) refers to dmul.o(x$fpl$dmul) for __aeabi_dmul
    dunder.o(i.__mathlib_dbl_underflow) refers to dmul.o(x$fpl$dmul) for __aeabi_dmul
    fabs.o(i.__hardfp_fabs) refers (Special) to usenofp.o(x$fpl$usenofp) for __I$use$fp
    fabs.o(i.__softfp_fabs) refers (Special) to usenofp.o(x$fpl$usenofp) for __I$use$fp
    fabs.o(i.fabs) refers (Special) to usenofp.o(x$fpl$usenofp) for __I$use$fp
    fpclassify.o(i.__ARM_fpclassify) refers (Special) to usenofp.o(x$fpl$usenofp) for __I$use$fp
    fpclassifyf.o(i.__ARM_fpclassifyf) refers (Special) to usenofp.o(x$fpl$usenofp) for __I$use$fp
    poly.o(i.__kernel_poly) refers (Special) to usenofp.o(x$fpl$usenofp) for __I$use$fp
    poly.o(i.__kernel_poly) refers to dmul.o(x$fpl$dmul) for __aeabi_dmul
    poly.o(i.__kernel_poly) refers to daddsub_clz.o(x$fpl$dadd) for __aeabi_dadd
    sqrt.o(i.__hardfp_sqrt) refers (Special) to usenofp.o(x$fpl$usenofp) for __I$use$fp
    sqrt.o(i.__hardfp_sqrt) refers to dsqrt_umaal.o(x$fpl$dsqrt) for _dsqrt
    sqrt.o(i.__hardfp_sqrt) refers to _rserrno.o(.text) for __set_errno
    sqrt.o(i.__softfp_sqrt) refers (Special) to usenofp.o(x$fpl$usenofp) for __I$use$fp
    sqrt.o(i.__softfp_sqrt) refers to dsqrt_umaal.o(x$fpl$dsqrt) for _dsqrt
    sqrt.o(i.__softfp_sqrt) refers to _rserrno.o(.text) for __set_errno
    sqrt.o(i.sqrt) refers (Special) to usenofp.o(x$fpl$usenofp) for __I$use$fp
    sqrt.o(i.sqrt) refers to dsqrt_umaal.o(x$fpl$dsqrt) for _dsqrt
    sqrt.o(i.sqrt) refers to _rserrno.o(.text) for __set_errno
    sqrt_x.o(i.____hardfp_sqrt$lsc) refers (Special) to usenofp.o(x$fpl$usenofp) for __I$use$fp
    sqrt_x.o(i.____hardfp_sqrt$lsc) refers to dleqf.o(x$fpl$dleqf) for __aeabi_cdcmple
    sqrt_x.o(i.____hardfp_sqrt$lsc) refers to _rserrno.o(.text) for __set_errno
    sqrt_x.o(i.____hardfp_sqrt$lsc) refers to dsqrt_umaal.o(x$fpl$dsqrt) for _dsqrt
    sqrt_x.o(i.____softfp_sqrt$lsc) refers (Special) to usenofp.o(x$fpl$usenofp) for __I$use$fp
    sqrt_x.o(i.____softfp_sqrt$lsc) refers to dleqf.o(x$fpl$dleqf) for __aeabi_cdcmple
    sqrt_x.o(i.____softfp_sqrt$lsc) refers to _rserrno.o(.text) for __set_errno
    sqrt_x.o(i.____softfp_sqrt$lsc) refers to dsqrt_umaal.o(x$fpl$dsqrt) for _dsqrt
    sqrt_x.o(i.__sqrt$lsc) refers (Special) to usenofp.o(x$fpl$usenofp) for __I$use$fp
    sqrt_x.o(i.__sqrt$lsc) refers to dleqf.o(x$fpl$dleqf) for __aeabi_cdcmple
    sqrt_x.o(i.__sqrt$lsc) refers to _rserrno.o(.text) for __set_errno
    sqrt_x.o(i.__sqrt$lsc) refers to dsqrt_umaal.o(x$fpl$dsqrt) for _dsqrt
    __rtentry2.o(.ARM.Collect$$rtentry$$00000008) refers to boardinit2.o(.text) for _platform_post_stackheap_init
    __rtentry2.o(.ARM.Collect$$rtentry$$0000000A) refers to libinit.o(.ARM.Collect$$libinit$$00000000) for __rt_lib_init
    __rtentry2.o(.ARM.Collect$$rtentry$$0000000B) refers to boardinit3.o(.text) for _platform_post_lib_init
    __rtentry2.o(.ARM.Collect$$rtentry$$0000000D) refers to startup.o(.text) for main
    __rtentry2.o(.ARM.Collect$$rtentry$$0000000D) refers to exit.o(.text) for exit
    __rtentry2.o(.ARM.exidx) refers to __rtentry2.o(.ARM.Collect$$rtentry$$00000001) for .ARM.Collect$$rtentry$$00000001
    __rtentry2.o(.ARM.exidx) refers to __rtentry2.o(.ARM.Collect$$rtentry$$00000008) for .ARM.Collect$$rtentry$$00000008
    __rtentry2.o(.ARM.exidx) refers to __rtentry2.o(.ARM.Collect$$rtentry$$0000000A) for .ARM.Collect$$rtentry$$0000000A
    __rtentry2.o(.ARM.exidx) refers to __rtentry2.o(.ARM.Collect$$rtentry$$0000000B) for .ARM.Collect$$rtentry$$0000000B
    __rtentry2.o(.ARM.exidx) refers to __rtentry2.o(.ARM.Collect$$rtentry$$0000000D) for .ARM.Collect$$rtentry$$0000000D
    __rtentry4.o(.ARM.Collect$$rtentry$$00000004) refers to sys_stackheap_outer.o(.text) for __user_setup_stackheap
    __rtentry4.o(.ARM.exidx) refers to __rtentry4.o(.ARM.Collect$$rtentry$$00000004) for .ARM.Collect$$rtentry$$00000004
    rt_locale.o(.text) refers to rt_locale.o(.bss) for __rt_locale_data
    rt_locale_intlibspace.o(.text) refers to libspace.o(.bss) for __libspace_start
    rt_errno_addr.o(.text) refers to rt_errno_addr.o(.bss) for __aeabi_errno_addr_data
    rt_errno_addr_intlibspace.o(.text) refers to libspace.o(.bss) for __libspace_start
    bigflt0.o(.text) refers (Special) to usenofp.o(x$fpl$usenofp) for __I$use$fp
    bigflt0.o(.text) refers to btod.o(CL$$btod_emul) for _btod_emul
    bigflt0.o(.text) refers to btod.o(CL$$btod_ediv) for _btod_ediv
    bigflt0.o(.text) refers to bigflt0.o(.constdata) for .constdata
    bigflt0.o(.constdata) refers (Special) to usenofp.o(x$fpl$usenofp) for __I$use$fp
    btod.o(CL$$btod_d2e) refers (Special) to usenofp.o(x$fpl$usenofp) for __I$use$fp
    btod.o(CL$$btod_d2e) refers to btod.o(CL$$btod_d2e_norm_op1) for _d2e_norm_op1
    btod.o(CL$$btod_d2e_norm_op1) refers (Special) to usenofp.o(x$fpl$usenofp) for __I$use$fp
    btod.o(CL$$btod_d2e_norm_op1) refers to btod.o(CL$$btod_d2e_denorm_low) for _d2e_denorm_low
    btod.o(CL$$btod_d2e_denorm_low) refers (Special) to usenofp.o(x$fpl$usenofp) for __I$use$fp
    btod.o(CL$$btod_emul) refers (Special) to usenofp.o(x$fpl$usenofp) for __I$use$fp
    btod.o(CL$$btod_emul) refers to btod.o(CL$$btod_mult_common) for __btod_mult_common
    btod.o(CL$$btod_emul) refers to btod.o(CL$$btod_e2e) for _e2e
    btod.o(CL$$btod_ediv) refers (Special) to usenofp.o(x$fpl$usenofp) for __I$use$fp
    btod.o(CL$$btod_ediv) refers to btod.o(CL$$btod_div_common) for __btod_div_common
    btod.o(CL$$btod_ediv) refers to btod.o(CL$$btod_e2e) for _e2e
    btod.o(CL$$btod_emuld) refers (Special) to usenofp.o(x$fpl$usenofp) for __I$use$fp
    btod.o(CL$$btod_emuld) refers to btod.o(CL$$btod_mult_common) for __btod_mult_common
    btod.o(CL$$btod_emuld) refers to btod.o(CL$$btod_e2d) for _e2d
    btod.o(CL$$btod_edivd) refers (Special) to usenofp.o(x$fpl$usenofp) for __I$use$fp
    btod.o(CL$$btod_edivd) refers to btod.o(CL$$btod_div_common) for __btod_div_common
    btod.o(CL$$btod_edivd) refers to btod.o(CL$$btod_e2d) for _e2d
    btod.o(CL$$btod_e2e) refers (Special) to usenofp.o(x$fpl$usenofp) for __I$use$fp
    btod.o(CL$$btod_e2d) refers (Special) to usenofp.o(x$fpl$usenofp) for __I$use$fp
    btod.o(CL$$btod_e2d) refers to btod.o(CL$$btod_e2e) for _e2e
    btod.o(CL$$btod_mult_common) refers (Special) to usenofp.o(x$fpl$usenofp) for __I$use$fp
    btod.o(CL$$btod_div_common) refers (Special) to usenofp.o(x$fpl$usenofp) for __I$use$fp
    lc_numeric_c.o(locale$$data) refers (Special) to libinit2.o(.ARM.Collect$$libinit$$00000016) for __rt_lib_init_lc_numeric_2
    lc_numeric_c.o(locale$$code) refers (Special) to libinit2.o(.ARM.Collect$$libinit$$00000016) for __rt_lib_init_lc_numeric_2
    lc_numeric_c.o(locale$$code) refers to string.o(.text) for strcmp
    lc_numeric_c.o(locale$$code) refers to lc_numeric_c.o(locale$$data) for __lcnum_c_name
    dsqrt_umaal.o(x$fpl$dsqrt) refers (Special) to usenofp.o(x$fpl$usenofp) for __I$use$fp
    dsqrt_umaal.o(x$fpl$dsqrt) refers to dnaninf.o(x$fpl$dnaninf) for __fpl_dnaninf
    istatus.o(x$fpl$ieeestatus) refers (Special) to usenofp.o(x$fpl$usenofp) for __I$use$fp
    libspace.o(.text) refers to libspace.o(.bss) for __libspace_start
    sys_stackheap_outer.o(.text) refers to libspace.o(.text) for __user_perproc_libspace
    sys_stackheap_outer.o(.text) refers to startup_stm32f40xx.o(.text) for __user_initial_stackheap
    exit.o(.text) refers to rtexit.o(.ARM.Collect$$rtexit$$00000000) for __rt_exit
    libinit.o(.ARM.Collect$$libinit$$00000000) refers (Special) to libinit2.o(.ARM.Collect$$libinit$$0000002E) for __rt_lib_init_alloca_1
    libinit.o(.ARM.Collect$$libinit$$00000000) refers (Special) to libinit2.o(.ARM.Collect$$libinit$$0000002C) for __rt_lib_init_argv_1
    libinit.o(.ARM.Collect$$libinit$$00000000) refers (Special) to libinit2.o(.ARM.Collect$$libinit$$0000001B) for __rt_lib_init_atexit_1
    libinit.o(.ARM.Collect$$libinit$$00000000) refers (Special) to libinit2.o(.ARM.Collect$$libinit$$00000021) for __rt_lib_init_clock_1
    libinit.o(.ARM.Collect$$libinit$$00000000) refers (Special) to libinit2.o(.ARM.Collect$$libinit$$00000032) for __rt_lib_init_cpp_1
    libinit.o(.ARM.Collect$$libinit$$00000000) refers (Special) to libinit2.o(.ARM.Collect$$libinit$$00000030) for __rt_lib_init_exceptions_1
    libinit.o(.ARM.Collect$$libinit$$00000000) refers (Special) to libinit2.o(.ARM.Collect$$libinit$$00000001) for __rt_lib_init_fp_1
    libinit.o(.ARM.Collect$$libinit$$00000000) refers (Special) to libinit2.o(.ARM.Collect$$libinit$$0000001F) for __rt_lib_init_fp_trap_1
    libinit.o(.ARM.Collect$$libinit$$00000000) refers (Special) to libinit2.o(.ARM.Collect$$libinit$$00000023) for __rt_lib_init_getenv_1
    libinit.o(.ARM.Collect$$libinit$$00000000) refers (Special) to libinit2.o(.ARM.Collect$$libinit$$0000000A) for __rt_lib_init_heap_1
    libinit.o(.ARM.Collect$$libinit$$00000000) refers (Special) to libinit2.o(.ARM.Collect$$libinit$$00000011) for __rt_lib_init_lc_collate_1
    libinit.o(.ARM.Collect$$libinit$$00000000) refers (Special) to libinit2.o(.ARM.Collect$$libinit$$00000013) for __rt_lib_init_lc_ctype_1
    libinit.o(.ARM.Collect$$libinit$$00000000) refers (Special) to libinit2.o(.ARM.Collect$$libinit$$00000015) for __rt_lib_init_lc_monetary_1
    libinit.o(.ARM.Collect$$libinit$$00000000) refers (Special) to libinit2.o(.ARM.Collect$$libinit$$00000017) for __rt_lib_init_lc_numeric_1
    libinit.o(.ARM.Collect$$libinit$$00000000) refers (Special) to libinit2.o(.ARM.Collect$$libinit$$00000019) for __rt_lib_init_lc_time_1
    libinit.o(.ARM.Collect$$libinit$$00000000) refers (Special) to libinit2.o(.ARM.Collect$$libinit$$00000004) for __rt_lib_init_preinit_1
    libinit.o(.ARM.Collect$$libinit$$00000000) refers (Special) to libinit2.o(.ARM.Collect$$libinit$$0000000E) for __rt_lib_init_rand_1
    libinit.o(.ARM.Collect$$libinit$$00000000) refers (Special) to libinit2.o(.ARM.Collect$$libinit$$00000033) for __rt_lib_init_return
    libinit.o(.ARM.Collect$$libinit$$00000000) refers (Special) to libinit2.o(.ARM.Collect$$libinit$$0000001D) for __rt_lib_init_signal_1
    libinit.o(.ARM.Collect$$libinit$$00000000) refers (Special) to libinit2.o(.ARM.Collect$$libinit$$00000025) for __rt_lib_init_stdio_1
    libinit.o(.ARM.Collect$$libinit$$00000000) refers (Special) to libinit2.o(.ARM.Collect$$libinit$$0000000C) for __rt_lib_init_user_alloc_1
    libinit2.o(.ARM.Collect$$libinit$$00000001) refers to fpinit.o(x$fpl$fpinit) for _fp_init
    libinit2.o(.ARM.Collect$$libinit$$0000000F) refers (Weak) to rt_locale_intlibspace.o(.text) for __rt_locale
    libinit2.o(.ARM.Collect$$libinit$$00000010) refers to libinit2.o(.ARM.Collect$$libinit$$0000000F) for .ARM.Collect$$libinit$$0000000F
    libinit2.o(.ARM.Collect$$libinit$$00000012) refers to libinit2.o(.ARM.Collect$$libinit$$0000000F) for .ARM.Collect$$libinit$$0000000F
    libinit2.o(.ARM.Collect$$libinit$$00000014) refers to libinit2.o(.ARM.Collect$$libinit$$0000000F) for .ARM.Collect$$libinit$$0000000F
    libinit2.o(.ARM.Collect$$libinit$$00000016) refers to libinit2.o(.ARM.Collect$$libinit$$0000000F) for .ARM.Collect$$libinit$$0000000F
    libinit2.o(.ARM.Collect$$libinit$$00000016) refers (Weak) to lc_numeric_c.o(locale$$code) for _get_lc_numeric
    libinit2.o(.ARM.Collect$$libinit$$00000018) refers to libinit2.o(.ARM.Collect$$libinit$$0000000F) for .ARM.Collect$$libinit$$0000000F
    libinit2.o(.ARM.Collect$$libinit$$00000026) refers to argv_veneer.o(.emb_text) for __ARM_argv_veneer
    libinit2.o(.ARM.Collect$$libinit$$00000027) refers to argv_veneer.o(.emb_text) for __ARM_argv_veneer
    rtexit.o(.ARM.Collect$$rtexit$$00000000) refers (Special) to rtexit2.o(.ARM.Collect$$rtexit$$00000004) for __rt_exit_exit
    rtexit.o(.ARM.Collect$$rtexit$$00000000) refers (Special) to rtexit2.o(.ARM.Collect$$rtexit$$00000003) for __rt_exit_ls
    rtexit.o(.ARM.Collect$$rtexit$$00000000) refers (Special) to rtexit2.o(.ARM.Collect$$rtexit$$00000002) for __rt_exit_prels_1
    rtexit.o(.ARM.exidx) refers (Special) to rtexit2.o(.ARM.Collect$$rtexit$$00000004) for __rt_exit_exit
    rtexit.o(.ARM.exidx) refers (Special) to rtexit2.o(.ARM.Collect$$rtexit$$00000003) for __rt_exit_ls
    rtexit.o(.ARM.exidx) refers (Special) to rtexit2.o(.ARM.Collect$$rtexit$$00000002) for __rt_exit_prels_1
    rtexit.o(.ARM.exidx) refers to rtexit.o(.ARM.Collect$$rtexit$$00000000) for .ARM.Collect$$rtexit$$00000000
    argv_veneer.o(.emb_text) refers to no_argv.o(.text) for __ARM_get_argv
    rtexit2.o(.ARM.Collect$$rtexit$$00000003) refers to libshutdown.o(.ARM.Collect$$libshutdown$$00000000) for __rt_lib_shutdown
    rtexit2.o(.ARM.Collect$$rtexit$$00000004) refers to stm32f4_uart.o(.text) for _sys_exit
    rtexit2.o(.ARM.exidx) refers to rtexit2.o(.ARM.Collect$$rtexit$$00000001) for .ARM.Collect$$rtexit$$00000001
    rtexit2.o(.ARM.exidx) refers to rtexit2.o(.ARM.Collect$$rtexit$$00000003) for .ARM.Collect$$rtexit$$00000003
    rtexit2.o(.ARM.exidx) refers to rtexit2.o(.ARM.Collect$$rtexit$$00000004) for .ARM.Collect$$rtexit$$00000004
    _get_argv_nomalloc.o(.text) refers (Special) to hrguard.o(.text) for __heap_region$guard
    _get_argv_nomalloc.o(.text) refers to defsig_rtmem_outer.o(.text) for __rt_SIGRTMEM
    _get_argv_nomalloc.o(.text) refers to sys_command.o(.text) for _sys_command_string
    sys_command.o(.text) refers (Special) to use_no_semi.o(.text) for __I$use$semihosting
    sys_command.o(.text) refers (Special) to indicate_semi.o(.text) for __semihosting_library_function
    defsig_rtmem_outer.o(.text) refers to defsig_rtmem_inner.o(.text) for __rt_SIGRTMEM_inner
    defsig_rtmem_outer.o(.text) refers to defsig_exit.o(.text) for __sig_exit
    defsig_rtmem_formal.o(.text) refers to rt_raise.o(.text) for __rt_raise
    libshutdown.o(.ARM.Collect$$libshutdown$$00000000) refers (Special) to libshutdown2.o(.ARM.Collect$$libshutdown$$00000006) for __rt_lib_shutdown_fp_trap_1
    libshutdown.o(.ARM.Collect$$libshutdown$$00000000) refers (Special) to libshutdown2.o(.ARM.Collect$$libshutdown$$0000000E) for __rt_lib_shutdown_heap_1
    libshutdown.o(.ARM.Collect$$libshutdown$$00000000) refers (Special) to libshutdown2.o(.ARM.Collect$$libshutdown$$0000000F) for __rt_lib_shutdown_return
    libshutdown.o(.ARM.Collect$$libshutdown$$00000000) refers (Special) to libshutdown2.o(.ARM.Collect$$libshutdown$$00000009) for __rt_lib_shutdown_signal_1
    libshutdown.o(.ARM.Collect$$libshutdown$$00000000) refers (Special) to libshutdown2.o(.ARM.Collect$$libshutdown$$00000003) for __rt_lib_shutdown_stdio_1
    libshutdown.o(.ARM.Collect$$libshutdown$$00000000) refers (Special) to libshutdown2.o(.ARM.Collect$$libshutdown$$0000000B) for __rt_lib_shutdown_user_alloc_1
    rt_raise.o(.text) refers to __raise.o(.text) for __raise
    rt_raise.o(.text) refers to stm32f4_uart.o(.text) for _sys_exit
    defsig_exit.o(.text) refers to stm32f4_uart.o(.text) for _sys_exit
    defsig_rtmem_inner.o(.text) refers to defsig_general.o(.text) for __default_signal_display
    __raise.o(.text) refers to defsig.o(CL$$defsig) for __default_signal_handler
    defsig_general.o(.text) refers to sys_wrch.o(.text) for _ttywrch
    sys_wrch.o(.text) refers (Special) to use_no_semi.o(.text) for __I$use$semihosting
    sys_wrch.o(.text) refers (Special) to indicate_semi.o(.text) for __semihosting_library_function
    defsig.o(CL$$defsig) refers to defsig_rtmem_inner.o(.text) for __rt_SIGRTMEM_inner
    defsig_abrt_inner.o(.text) refers to defsig_general.o(.text) for __default_signal_display
    defsig_fpe_inner.o(.text) refers to defsig_general.o(.text) for __default_signal_display
    defsig_rtred_inner.o(.text) refers to defsig_general.o(.text) for __default_signal_display
    defsig_stak_inner.o(.text) refers to defsig_general.o(.text) for __default_signal_display
    defsig_pvfn_inner.o(.text) refers to defsig_general.o(.text) for __default_signal_display
    defsig_cppl_inner.o(.text) refers to defsig_general.o(.text) for __default_signal_display
    defsig_segv_inner.o(.text) refers to defsig_general.o(.text) for __default_signal_display
    defsig_other.o(.text) refers to defsig_general.o(.text) for __default_signal_display


==============================================================================

Removing Unused input sections from the image.

    Removing startup.o(.rev16_text), (4 bytes).
    Removing startup.o(.revsh_text), (4 bytes).
    Removing startup.o(.rrx_text), (6 bytes).
    Removing application.o(.rev16_text), (4 bytes).
    Removing application.o(.revsh_text), (4 bytes).
    Removing application.o(.rrx_text), (6 bytes).
    Removing application.o(.constdata), (256 bytes).
    Removing common.o(.rev16_text), (4 bytes).
    Removing common.o(.revsh_text), (4 bytes).
    Removing common.o(.rrx_text), (6 bytes).
    Removing common.o(.data), (20 bytes).
    Removing interface.o(.rev16_text), (4 bytes).
    Removing interface.o(.revsh_text), (4 bytes).
    Removing interface.o(.rrx_text), (6 bytes).
    Removing fpga_upgrade.o(.rev16_text), (4 bytes).
    Removing fpga_upgrade.o(.revsh_text), (4 bytes).
    Removing fpga_upgrade.o(.rrx_text), (6 bytes).
    Removing upgrade.o(.rev16_text), (4 bytes).
    Removing upgrade.o(.revsh_text), (4 bytes).
    Removing upgrade.o(.rrx_text), (6 bytes).
    Removing ymodem.o(.rev16_text), (4 bytes).
    Removing ymodem.o(.revsh_text), (4 bytes).
    Removing ymodem.o(.rrx_text), (6 bytes).
    Removing ymodem.o(.data), (16 bytes).
    Removing antenna_sw.o(.rev16_text), (4 bytes).
    Removing antenna_sw.o(.revsh_text), (4 bytes).
    Removing antenna_sw.o(.rrx_text), (6 bytes).
    Removing antenna_sw.o(.constdata), (256 bytes).
    Removing uart_protocol.o(.rev16_text), (4 bytes).
    Removing uart_protocol.o(.revsh_text), (4 bytes).
    Removing uart_protocol.o(.rrx_text), (6 bytes).
    Removing board.o(.rev16_text), (4 bytes).
    Removing board.o(.revsh_text), (4 bytes).
    Removing board.o(.rrx_text), (6 bytes).
    Removing stm32f4_eth.o(.rev16_text), (4 bytes).
    Removing stm32f4_eth.o(.revsh_text), (4 bytes).
    Removing stm32f4_eth.o(.rrx_text), (6 bytes).
    Removing stm32f4_i2c.o(.rev16_text), (4 bytes).
    Removing stm32f4_i2c.o(.revsh_text), (4 bytes).
    Removing stm32f4_i2c.o(.rrx_text), (6 bytes).
    Removing stm32f4_i2c.o(.text), (360 bytes).
    Removing stm32f4_i2c.o(.bss), (164 bytes).
    Removing stm32f4_i2c.o(.constdata), (32 bytes).
    Removing stm32f4_i2c.o(.data), (8 bytes).
    Removing stm32f4_spi.o(.rev16_text), (4 bytes).
    Removing stm32f4_spi.o(.revsh_text), (4 bytes).
    Removing stm32f4_spi.o(.rrx_text), (6 bytes).
    Removing stm32f4_uart.o(.rev16_text), (4 bytes).
    Removing stm32f4_uart.o(.revsh_text), (4 bytes).
    Removing stm32f4_uart.o(.rrx_text), (6 bytes).
    Removing timer.o(.rev16_text), (4 bytes).
    Removing timer.o(.revsh_text), (4 bytes).
    Removing timer.o(.rrx_text), (6 bytes).
    Removing i2c_bit_ops.o(.text), (1560 bytes).
    Removing i2c_bit_ops.o(.constdata), (4 bytes).
    Removing i2c_bus.o(.text), (716 bytes).
    Removing i2c_bus.o(.constdata), (124 bytes).
    Removing serial.o(.rev16_text), (4 bytes).
    Removing serial.o(.revsh_text), (4 bytes).
    Removing serial.o(.rrx_text), (6 bytes).
    Removing cmd.o(.rev16_text), (4 bytes).
    Removing cmd.o(.revsh_text), (4 bytes).
    Removing cmd.o(.rrx_text), (6 bytes).
    Removing finsh_compiler.o(.text), (6168 bytes).
    Removing finsh_compiler.o(.data), (8 bytes).
    Removing finsh_error.o(.text), (44 bytes).
    Removing finsh_error.o(.conststring), (242 bytes).
    Removing finsh_error.o(.data), (64 bytes).
    Removing finsh_heap.o(.text), (528 bytes).
    Removing finsh_heap.o(.bss), (128 bytes).
    Removing finsh_heap.o(.data), (8 bytes).
    Removing finsh_init.o(.text), (88 bytes).
    Removing finsh_node.o(.text), (388 bytes).
    Removing finsh_node.o(.bss), (320 bytes).
    Removing finsh_ops.o(.text), (2780 bytes).
    Removing finsh_ops.o(.constdata), (196 bytes).
    Removing finsh_parser.o(.text), (2428 bytes).
    Removing finsh_token.o(.text), (1664 bytes).
    Removing finsh_token.o(.constdata), (64 bytes).
    Removing finsh_token.o(.conststring), (61 bytes).
    Removing finsh_var.o(.text), (412 bytes).
    Removing finsh_var.o(.bss), (192 bytes).
    Removing finsh_var.o(.data), (4 bytes).
    Removing finsh_vm.o(.text), (228 bytes).
    Removing finsh_vm.o(.bss), (384 bytes).
    Removing finsh_vm.o(.data), (12 bytes).
    Removing msh_cmd.o(.text), (34 bytes).
    Removing msh_cmd.o(.rodata.name), (123 bytes).
    Removing msh_cmd.o(FSymTab), (36 bytes).
    Removing system_stm32f4xx.o(.rev16_text), (4 bytes).
    Removing system_stm32f4xx.o(.revsh_text), (4 bytes).
    Removing system_stm32f4xx.o(.rrx_text), (6 bytes).
    Removing ctype.o(.text), (108 bytes).
    Removing qsort.o(.text), (360 bytes).
    Removing time.o(.text), (960 bytes).
    Removing time.o(.bss), (69 bytes).
    Removing time.o(.constdata), (104 bytes).
    Removing time.o(.data), (4 bytes).
    Removing misc.o(.rev16_text), (4 bytes).
    Removing misc.o(.revsh_text), (4 bytes).
    Removing misc.o(.rrx_text), (6 bytes).
    Removing stm32f4xx_adc.o(.rev16_text), (4 bytes).
    Removing stm32f4xx_adc.o(.revsh_text), (4 bytes).
    Removing stm32f4xx_adc.o(.rrx_text), (6 bytes).
    Removing stm32f4xx_adc.o(.text), (1124 bytes).
    Removing stm32f4xx_can.o(.rev16_text), (4 bytes).
    Removing stm32f4xx_can.o(.revsh_text), (4 bytes).
    Removing stm32f4xx_can.o(.rrx_text), (6 bytes).
    Removing stm32f4xx_can.o(.text), (2544 bytes).
    Removing stm32f4xx_cec.o(.rev16_text), (4 bytes).
    Removing stm32f4xx_cec.o(.revsh_text), (4 bytes).
    Removing stm32f4xx_cec.o(.rrx_text), (6 bytes).
    Removing stm32f4xx_crc.o(.rev16_text), (4 bytes).
    Removing stm32f4xx_crc.o(.revsh_text), (4 bytes).
    Removing stm32f4xx_crc.o(.rrx_text), (6 bytes).
    Removing stm32f4xx_crc.o(.text), (72 bytes).
    Removing stm32f4xx_dac.o(.rev16_text), (4 bytes).
    Removing stm32f4xx_dac.o(.revsh_text), (4 bytes).
    Removing stm32f4xx_dac.o(.rrx_text), (6 bytes).
    Removing stm32f4xx_dac.o(.text), (528 bytes).
    Removing stm32f4xx_dbgmcu.o(.rev16_text), (4 bytes).
    Removing stm32f4xx_dbgmcu.o(.revsh_text), (4 bytes).
    Removing stm32f4xx_dbgmcu.o(.rrx_text), (6 bytes).
    Removing stm32f4xx_dbgmcu.o(.text), (100 bytes).
    Removing stm32f4xx_dma.o(.rev16_text), (4 bytes).
    Removing stm32f4xx_dma.o(.revsh_text), (4 bytes).
    Removing stm32f4xx_dma.o(.rrx_text), (6 bytes).
    Removing stm32f4xx_exti.o(.rev16_text), (4 bytes).
    Removing stm32f4xx_exti.o(.revsh_text), (4 bytes).
    Removing stm32f4xx_exti.o(.rrx_text), (6 bytes).
    Removing stm32f4xx_exti.o(.text), (272 bytes).
    Removing stm32f4xx_flash.o(.rev16_text), (4 bytes).
    Removing stm32f4xx_flash.o(.revsh_text), (4 bytes).
    Removing stm32f4xx_flash.o(.rrx_text), (6 bytes).
    Removing stm32f4xx_flash.o(.text), (1684 bytes).
    Removing stm32f4xx_gpio.o(.rev16_text), (4 bytes).
    Removing stm32f4xx_gpio.o(.revsh_text), (4 bytes).
    Removing stm32f4xx_gpio.o(.rrx_text), (6 bytes).
    Removing stm32f4xx_i2c.o(.rev16_text), (4 bytes).
    Removing stm32f4xx_i2c.o(.revsh_text), (4 bytes).
    Removing stm32f4xx_i2c.o(.rrx_text), (6 bytes).
    Removing stm32f4xx_i2c.o(.text), (1110 bytes).
    Removing stm32f4xx_iwdg.o(.rev16_text), (4 bytes).
    Removing stm32f4xx_iwdg.o(.revsh_text), (4 bytes).
    Removing stm32f4xx_iwdg.o(.rrx_text), (6 bytes).
    Removing stm32f4xx_iwdg.o(.text), (64 bytes).
    Removing stm32f4xx_lptim.o(.rev16_text), (4 bytes).
    Removing stm32f4xx_lptim.o(.revsh_text), (4 bytes).
    Removing stm32f4xx_lptim.o(.rrx_text), (6 bytes).
    Removing stm32f4xx_pwr.o(.rev16_text), (4 bytes).
    Removing stm32f4xx_pwr.o(.revsh_text), (4 bytes).
    Removing stm32f4xx_pwr.o(.rrx_text), (6 bytes).
    Removing stm32f4xx_pwr.o(.text), (328 bytes).
    Removing stm32f4xx_rcc.o(.rev16_text), (4 bytes).
    Removing stm32f4xx_rcc.o(.revsh_text), (4 bytes).
    Removing stm32f4xx_rcc.o(.rrx_text), (6 bytes).
    Removing stm32f4xx_rtc.o(.rev16_text), (4 bytes).
    Removing stm32f4xx_rtc.o(.revsh_text), (4 bytes).
    Removing stm32f4xx_rtc.o(.rrx_text), (6 bytes).
    Removing stm32f4xx_rtc.o(.text), (3440 bytes).
    Removing stm32f4xx_sdio.o(.rev16_text), (4 bytes).
    Removing stm32f4xx_sdio.o(.revsh_text), (4 bytes).
    Removing stm32f4xx_sdio.o(.rrx_text), (6 bytes).
    Removing stm32f4xx_sdio.o(.text), (476 bytes).
    Removing stm32f4xx_spi.o(.rev16_text), (4 bytes).
    Removing stm32f4xx_spi.o(.revsh_text), (4 bytes).
    Removing stm32f4xx_spi.o(.rrx_text), (6 bytes).
    Removing stm32f4xx_syscfg.o(.rev16_text), (4 bytes).
    Removing stm32f4xx_syscfg.o(.revsh_text), (4 bytes).
    Removing stm32f4xx_syscfg.o(.rrx_text), (6 bytes).
    Removing stm32f4xx_tim.o(.rev16_text), (4 bytes).
    Removing stm32f4xx_tim.o(.revsh_text), (4 bytes).
    Removing stm32f4xx_tim.o(.rrx_text), (6 bytes).
    Removing stm32f4xx_usart.o(.rev16_text), (4 bytes).
    Removing stm32f4xx_usart.o(.revsh_text), (4 bytes).
    Removing stm32f4xx_usart.o(.rrx_text), (6 bytes).
    Removing stm32f4xx_wwdg.o(.rev16_text), (4 bytes).
    Removing stm32f4xx_wwdg.o(.revsh_text), (4 bytes).
    Removing stm32f4xx_wwdg.o(.rrx_text), (6 bytes).
    Removing stm32f4xx_wwdg.o(.text), (144 bytes).
    Removing stm32f4x7_eth.o(.rev16_text), (4 bytes).
    Removing stm32f4x7_eth.o(.revsh_text), (4 bytes).
    Removing stm32f4x7_eth.o(.rrx_text), (6 bytes).
    Removing sys.o(.text), (36 bytes).
    Removing ethernetif.o(.rev16_text), (4 bytes).
    Removing ethernetif.o(.revsh_text), (4 bytes).
    Removing ethernetif.o(.rrx_text), (6 bytes).
    Removing udp_connect.o(.rev16_text), (4 bytes).
    Removing udp_connect.o(.revsh_text), (4 bytes).
    Removing udp_connect.o(.rrx_text), (6 bytes).
    Removing httpd_cgi_ssi.o(.rev16_text), (4 bytes).
    Removing httpd_cgi_ssi.o(.revsh_text), (4 bytes).
    Removing httpd_cgi_ssi.o(.rrx_text), (6 bytes).

193 unused section(s) (total 34277 bytes) removed from the image.

==============================================================================

Image Symbol Table

    Local Symbols

    Symbol Name                              Value     Ov Type        Size  Object(Section)

    ../clib/angel/boardlib.s                 0x00000000   Number         0  boardinit1.o ABSOLUTE
    ../clib/angel/boardlib.s                 0x00000000   Number         0  boardinit3.o ABSOLUTE
    ../clib/angel/boardlib.s                 0x00000000   Number         0  boardshut.o ABSOLUTE
    ../clib/angel/boardlib.s                 0x00000000   Number         0  boardinit2.o ABSOLUTE
    ../clib/angel/dczerorl2.s                0x00000000   Number         0  __dczerorl2.o ABSOLUTE
    ../clib/angel/handlers.s                 0x00000000   Number         0  __scatter_zi.o ABSOLUTE
    ../clib/angel/kernel.s                   0x00000000   Number         0  __rtentry.o ABSOLUTE
    ../clib/angel/kernel.s                   0x00000000   Number         0  rtexit2.o ABSOLUTE
    ../clib/angel/kernel.s                   0x00000000   Number         0  __rtentry2.o ABSOLUTE
    ../clib/angel/kernel.s                   0x00000000   Number         0  __rtentry4.o ABSOLUTE
    ../clib/angel/kernel.s                   0x00000000   Number         0  rtexit.o ABSOLUTE
    ../clib/angel/rt.s                       0x00000000   Number         0  rt_locale.o ABSOLUTE
    ../clib/angel/rt.s                       0x00000000   Number         0  rt_locale_intlibspace.o ABSOLUTE
    ../clib/angel/rt.s                       0x00000000   Number         0  rt_raise.o ABSOLUTE
    ../clib/angel/rt.s                       0x00000000   Number         0  rt_errno_addr.o ABSOLUTE
    ../clib/angel/rt.s                       0x00000000   Number         0  rt_errno_addr_intlibspace.o ABSOLUTE
    ../clib/angel/scatter.s                  0x00000000   Number         0  __scatter.o ABSOLUTE
    ../clib/angel/startup.s                  0x00000000   Number         0  __main.o ABSOLUTE
    ../clib/angel/sys.s                      0x00000000   Number         0  use_no_semi.o ABSOLUTE
    ../clib/angel/sys.s                      0x00000000   Number         0  use_no_semi_2.o ABSOLUTE
    ../clib/angel/sys.s                      0x00000000   Number         0  indicate_semi.o ABSOLUTE
    ../clib/angel/sys.s                      0x00000000   Number         0  libspace.o ABSOLUTE
    ../clib/angel/sys.s                      0x00000000   Number         0  sys_stackheap_outer.o ABSOLUTE
    ../clib/angel/sysapp.c                   0x00000000   Number         0  sys_wrch.o ABSOLUTE
    ../clib/angel/sysapp.c                   0x00000000   Number         0  sys_command.o ABSOLUTE
    ../clib/armsys.c                         0x00000000   Number         0  _get_argv_nomalloc.o ABSOLUTE
    ../clib/armsys.c                         0x00000000   Number         0  no_argv.o ABSOLUTE
    ../clib/armsys.c                         0x00000000   Number         0  argv_veneer.o ABSOLUTE
    ../clib/armsys.c                         0x00000000   Number         0  argv_veneer.o ABSOLUTE
    ../clib/bigflt.c                         0x00000000   Number         0  bigflt0.o ABSOLUTE
    ../clib/btod.s                           0x00000000   Number         0  btod.o ABSOLUTE
    ../clib/fenv.c                           0x00000000   Number         0  _rserrno.o ABSOLUTE
    ../clib/heapalloc.c                      0x00000000   Number         0  hrguard.o ABSOLUTE
    ../clib/heapaux.c                        0x00000000   Number         0  heapauxi.o ABSOLUTE
    ../clib/libinit.s                        0x00000000   Number         0  libshutdown2.o ABSOLUTE
    ../clib/libinit.s                        0x00000000   Number         0  libinit2.o ABSOLUTE
    ../clib/libinit.s                        0x00000000   Number         0  libinit.o ABSOLUTE
    ../clib/libinit.s                        0x00000000   Number         0  libshutdown.o ABSOLUTE
    ../clib/locale.s                         0x00000000   Number         0  lc_numeric_c.o ABSOLUTE
    ../clib/longlong.s                       0x00000000   Number         0  lludiv10.o ABSOLUTE
    ../clib/memcpset.s                       0x00000000   Number         0  rt_memclr.o ABSOLUTE
    ../clib/memcpset.s                       0x00000000   Number         0  rt_memcpy_w.o ABSOLUTE
    ../clib/memcpset.s                       0x00000000   Number         0  rt_memcpy_v6.o ABSOLUTE
    ../clib/memcpset.s                       0x00000000   Number         0  rt_memclr_w.o ABSOLUTE
    ../clib/printf.c                         0x00000000   Number         0  noretval__2sprintf.o ABSOLUTE
    ../clib/printf.c                         0x00000000   Number         0  noretval__2printf.o ABSOLUTE
    ../clib/printf.c                         0x00000000   Number         0  __printf.o ABSOLUTE
    ../clib/printf.c                         0x00000000   Number         0  _printf_fp_infnan.o ABSOLUTE
    ../clib/printf.c                         0x00000000   Number         0  _printf_intcommon.o ABSOLUTE
    ../clib/printf.c                         0x00000000   Number         0  _printf_dec.o ABSOLUTE
    ../clib/printf.c                         0x00000000   Number         0  __printf_flags_ss_wp.o ABSOLUTE
    ../clib/printf.c                         0x00000000   Number         0  __2sprintf.o ABSOLUTE
    ../clib/printf.c                         0x00000000   Number         0  __2printf.o ABSOLUTE
    ../clib/printf.c                         0x00000000   Number         0  __printf_ss_wp.o ABSOLUTE
    ../clib/printf.c                         0x00000000   Number         0  _printf_fp_dec.o ABSOLUTE
    ../clib/printf.c                         0x00000000   Number         0  __printf_ss.o ABSOLUTE
    ../clib/printf.c                         0x00000000   Number         0  __printf_flags.o ABSOLUTE
    ../clib/printf.c                         0x00000000   Number         0  __printf_flags_wp.o ABSOLUTE
    ../clib/printf.c                         0x00000000   Number         0  __printf_wp.o ABSOLUTE
    ../clib/printf.c                         0x00000000   Number         0  __printf_nopercent.o ABSOLUTE
    ../clib/printf.c                         0x00000000   Number         0  __printf_flags_ss.o ABSOLUTE
    ../clib/printf.c                         0x00000000   Number         0  _printf_char_file.o ABSOLUTE
    ../clib/printf.c                         0x00000000   Number         0  _sputc.o ABSOLUTE
    ../clib/printf.c                         0x00000000   Number         0  _printf_char_common.o ABSOLUTE
    ../clib/printf_percent.s                 0x00000000   Number         0  _printf_f.o ABSOLUTE
    ../clib/printf_percent.s                 0x00000000   Number         0  _printf_d.o ABSOLUTE
    ../clib/printf_percent.s                 0x00000000   Number         0  _printf_percent.o ABSOLUTE
    ../clib/printf_percent.s                 0x00000000   Number         0  _printf_percent_end.o ABSOLUTE
    ../clib/signal.c                         0x00000000   Number         0  defsig_stak_inner.o ABSOLUTE
    ../clib/signal.c                         0x00000000   Number         0  defsig_pvfn_inner.o ABSOLUTE
    ../clib/signal.c                         0x00000000   Number         0  defsig_cppl_inner.o ABSOLUTE
    ../clib/signal.c                         0x00000000   Number         0  defsig_rtmem_formal.o ABSOLUTE
    ../clib/signal.c                         0x00000000   Number         0  defsig_other.o ABSOLUTE
    ../clib/signal.c                         0x00000000   Number         0  defsig_exit.o ABSOLUTE
    ../clib/signal.c                         0x00000000   Number         0  __raise.o ABSOLUTE
    ../clib/signal.c                         0x00000000   Number         0  defsig_rtmem_inner.o ABSOLUTE
    ../clib/signal.c                         0x00000000   Number         0  defsig_general.o ABSOLUTE
    ../clib/signal.c                         0x00000000   Number         0  defsig_rtmem_outer.o ABSOLUTE
    ../clib/signal.c                         0x00000000   Number         0  defsig_abrt_inner.o ABSOLUTE
    ../clib/signal.c                         0x00000000   Number         0  defsig_fpe_inner.o ABSOLUTE
    ../clib/signal.c                         0x00000000   Number         0  defsig_rtred_inner.o ABSOLUTE
    ../clib/signal.c                         0x00000000   Number         0  defsig_segv_inner.o ABSOLUTE
    ../clib/signal.s                         0x00000000   Number         0  defsig.o ABSOLUTE
    ../clib/stdio.c                          0x00000000   Number         0  ferror_locked.o ABSOLUTE
    ../clib/stdio.c                          0x00000000   Number         0  ferror.o ABSOLUTE
    ../clib/stdlib.c                         0x00000000   Number         0  exit.o ABSOLUTE
    ../clib/string.c                         0x00000000   Number         0  memcmp.o ABSOLUTE
    ../clib/string.c                         0x00000000   Number         0  strstr.o ABSOLUTE
    ../clib/string.c                         0x00000000   Number         0  strlen.o ABSOLUTE
    ../fplib/basic.s                         0x00000000   Number         0  basic.o ABSOLUTE
    ../fplib/daddsub.s                       0x00000000   Number         0  daddsub_clz.o ABSOLUTE
    ../fplib/dcmpi.s                         0x00000000   Number         0  dcmpi.o ABSOLUTE
    ../fplib/ddiv.s                          0x00000000   Number         0  ddiv.o ABSOLUTE
    ../fplib/dleqf.s                         0x00000000   Number         0  dleqf.o ABSOLUTE
    ../fplib/dmul.s                          0x00000000   Number         0  dmul.o ABSOLUTE
    ../fplib/dnaninf.s                       0x00000000   Number         0  dnaninf.o ABSOLUTE
    ../fplib/dretinf.s                       0x00000000   Number         0  dretinf.o ABSOLUTE
    ../fplib/drleqf.s                        0x00000000   Number         0  drleqf.o ABSOLUTE
    ../fplib/dsqrt.s                         0x00000000   Number         0  dsqrt_umaal.o ABSOLUTE
    ../fplib/f2d.s                           0x00000000   Number         0  f2d.o ABSOLUTE
    ../fplib/fnaninf.s                       0x00000000   Number         0  fnaninf.o ABSOLUTE
    ../fplib/fpinit.s                        0x00000000   Number         0  fpinit.o ABSOLUTE
    ../fplib/istatus.s                       0x00000000   Number         0  istatus.o ABSOLUTE
    ../fplib/printf1.s                       0x00000000   Number         0  printf1.o ABSOLUTE
    ../fplib/usenofp.s                       0x00000000   Number         0  usenofp.o ABSOLUTE
    ../mathlib/asin.c                        0x00000000   Number         0  asin.o ABSOLUTE
    ../mathlib/asin.c                        0x00000000   Number         0  asin_x.o ABSOLUTE
    ../mathlib/atan2f.c                      0x00000000   Number         0  atan2f_x.o ABSOLUTE
    ../mathlib/atan2f.c                      0x00000000   Number         0  atan2f.o ABSOLUTE
    ../mathlib/dunder.c                      0x00000000   Number         0  dunder.o ABSOLUTE
    ../mathlib/fabs.c                        0x00000000   Number         0  fabs.o ABSOLUTE
    ../mathlib/fpclassify.c                  0x00000000   Number         0  fpclassify.o ABSOLUTE
    ../mathlib/fpclassifyf.c                 0x00000000   Number         0  fpclassifyf.o ABSOLUTE
    ../mathlib/funder.c                      0x00000000   Number         0  funder.o ABSOLUTE
    ../mathlib/poly.c                        0x00000000   Number         0  poly.o ABSOLUTE
    ../mathlib/sqrt.c                        0x00000000   Number         0  sqrt_x.o ABSOLUTE
    ../mathlib/sqrt.c                        0x00000000   Number         0  sqrt.o ABSOLUTE
    ..\..\App\antenna_sw.c                   0x00000000   Number         0  antenna_sw.o ABSOLUTE
    ..\..\App\application.c                  0x00000000   Number         0  application.o ABSOLUTE
    ..\..\App\common.c                       0x00000000   Number         0  common.o ABSOLUTE
    ..\..\App\fpga_upgrade.c                 0x00000000   Number         0  fpga_upgrade.o ABSOLUTE
    ..\..\App\interface.c                    0x00000000   Number         0  interface.o ABSOLUTE
    ..\..\App\mcu_api.c                      0x00000000   Number         0  mcu_api.o ABSOLUTE
    ..\..\App\queue.c                        0x00000000   Number         0  queue.o ABSOLUTE
    ..\..\App\spansion.c                     0x00000000   Number         0  spansion.o ABSOLUTE
    ..\..\App\spi_flash.c                    0x00000000   Number         0  spi_flash.o ABSOLUTE
    ..\..\App\startup.c                      0x00000000   Number         0  startup.o ABSOLUTE
    ..\..\App\uart_protocol.c                0x00000000   Number         0  uart_protocol.o ABSOLUTE
    ..\..\App\udp_connect.c                  0x00000000   Number         0  udp_connect.o ABSOLUTE
    ..\..\App\upgrade.c                      0x00000000   Number         0  upgrade.o ABSOLUTE
    ..\..\App\ymodem.c                       0x00000000   Number         0  ymodem.o ABSOLUTE
    ..\..\Bsp\board.c                        0x00000000   Number         0  board.o ABSOLUTE
    ..\..\Bsp\stm32f4_eth.c                  0x00000000   Number         0  stm32f4_eth.o ABSOLUTE
    ..\..\Bsp\stm32f4_i2c.c                  0x00000000   Number         0  stm32f4_i2c.o ABSOLUTE
    ..\..\Bsp\stm32f4_it.c                   0x00000000   Number         0  stm32f4_it.o ABSOLUTE
    ..\..\Bsp\stm32f4_spi.c                  0x00000000   Number         0  stm32f4_spi.o ABSOLUTE
    ..\..\Bsp\stm32f4_uart.c                 0x00000000   Number         0  stm32f4_uart.o ABSOLUTE
    ..\..\Bsp\timer.c                        0x00000000   Number         0  timer.o ABSOLUTE
    ..\..\CMSIS\startup_stm32f40xx.s         0x00000000   Number         0  startup_stm32f40xx.o ABSOLUTE
    ..\..\CMSIS\system_stm32f4xx.c           0x00000000   Number         0  system_stm32f4xx.o ABSOLUTE
    ..\..\Drive\i2c_bit_ops.c                0x00000000   Number         0  i2c_bit_ops.o ABSOLUTE
    ..\..\Drive\i2c_bus.c                    0x00000000   Number         0  i2c_bus.o ABSOLUTE
    ..\..\Drive\serial.c                     0x00000000   Number         0  serial.o ABSOLUTE
    ..\..\Drive\spi_bus.c                    0x00000000   Number         0  spi_bus.o ABSOLUTE
    ..\..\Library\Finsh\cmd.c                0x00000000   Number         0  cmd.o ABSOLUTE
    ..\..\Library\Finsh\finsh_compiler.c     0x00000000   Number         0  finsh_compiler.o ABSOLUTE
    ..\..\Library\Finsh\finsh_error.c        0x00000000   Number         0  finsh_error.o ABSOLUTE
    ..\..\Library\Finsh\finsh_heap.c         0x00000000   Number         0  finsh_heap.o ABSOLUTE
    ..\..\Library\Finsh\finsh_init.c         0x00000000   Number         0  finsh_init.o ABSOLUTE
    ..\..\Library\Finsh\finsh_node.c         0x00000000   Number         0  finsh_node.o ABSOLUTE
    ..\..\Library\Finsh\finsh_ops.c          0x00000000   Number         0  finsh_ops.o ABSOLUTE
    ..\..\Library\Finsh\finsh_parser.c       0x00000000   Number         0  finsh_parser.o ABSOLUTE
    ..\..\Library\Finsh\finsh_token.c        0x00000000   Number         0  finsh_token.o ABSOLUTE
    ..\..\Library\Finsh\finsh_var.c          0x00000000   Number         0  finsh_var.o ABSOLUTE
    ..\..\Library\Finsh\finsh_vm.c           0x00000000   Number         0  finsh_vm.o ABSOLUTE
    ..\..\Library\Finsh\msh.c                0x00000000   Number         0  msh.o ABSOLUTE
    ..\..\Library\Finsh\msh_cmd.c            0x00000000   Number         0  msh_cmd.o ABSOLUTE
    ..\..\Library\Finsh\msh_file.c           0x00000000   Number         0  msh_file.o ABSOLUTE
    ..\..\Library\Finsh\shell.c              0x00000000   Number         0  shell.o ABSOLUTE
    ..\..\Library\Finsh\symbol.c             0x00000000   Number         0  symbol.o ABSOLUTE
    ..\..\Library\Libc\ctype.c               0x00000000   Number         0  ctype.o ABSOLUTE
    ..\..\Library\Libc\qsort.c               0x00000000   Number         0  qsort.o ABSOLUTE
    ..\..\Library\Libc\rand.c                0x00000000   Number         0  rand.o ABSOLUTE
    ..\..\Library\Libc\stdlib.c              0x00000000   Number         0  stdlib.o ABSOLUTE
    ..\..\Library\Libc\string.c              0x00000000   Number         0  string.o ABSOLUTE
    ..\..\Library\Libc\time.c                0x00000000   Number         0  time.o ABSOLUTE
    ..\..\Library\STM32F40x_StdPeriph_Driver\src\misc.c 0x00000000   Number         0  misc.o ABSOLUTE
    ..\..\Library\STM32F40x_StdPeriph_Driver\src\stm32f4xx_adc.c 0x00000000   Number         0  stm32f4xx_adc.o ABSOLUTE
    ..\..\Library\STM32F40x_StdPeriph_Driver\src\stm32f4xx_can.c 0x00000000   Number         0  stm32f4xx_can.o ABSOLUTE
    ..\..\Library\STM32F40x_StdPeriph_Driver\src\stm32f4xx_cec.c 0x00000000   Number         0  stm32f4xx_cec.o ABSOLUTE
    ..\..\Library\STM32F40x_StdPeriph_Driver\src\stm32f4xx_crc.c 0x00000000   Number         0  stm32f4xx_crc.o ABSOLUTE
    ..\..\Library\STM32F40x_StdPeriph_Driver\src\stm32f4xx_dac.c 0x00000000   Number         0  stm32f4xx_dac.o ABSOLUTE
    ..\..\Library\STM32F40x_StdPeriph_Driver\src\stm32f4xx_dbgmcu.c 0x00000000   Number         0  stm32f4xx_dbgmcu.o ABSOLUTE
    ..\..\Library\STM32F40x_StdPeriph_Driver\src\stm32f4xx_dma.c 0x00000000   Number         0  stm32f4xx_dma.o ABSOLUTE
    ..\..\Library\STM32F40x_StdPeriph_Driver\src\stm32f4xx_exti.c 0x00000000   Number         0  stm32f4xx_exti.o ABSOLUTE
    ..\..\Library\STM32F40x_StdPeriph_Driver\src\stm32f4xx_flash.c 0x00000000   Number         0  stm32f4xx_flash.o ABSOLUTE
    ..\..\Library\STM32F40x_StdPeriph_Driver\src\stm32f4xx_gpio.c 0x00000000   Number         0  stm32f4xx_gpio.o ABSOLUTE
    ..\..\Library\STM32F40x_StdPeriph_Driver\src\stm32f4xx_i2c.c 0x00000000   Number         0  stm32f4xx_i2c.o ABSOLUTE
    ..\..\Library\STM32F40x_StdPeriph_Driver\src\stm32f4xx_iwdg.c 0x00000000   Number         0  stm32f4xx_iwdg.o ABSOLUTE
    ..\..\Library\STM32F40x_StdPeriph_Driver\src\stm32f4xx_lptim.c 0x00000000   Number         0  stm32f4xx_lptim.o ABSOLUTE
    ..\..\Library\STM32F40x_StdPeriph_Driver\src\stm32f4xx_pwr.c 0x00000000   Number         0  stm32f4xx_pwr.o ABSOLUTE
    ..\..\Library\STM32F40x_StdPeriph_Driver\src\stm32f4xx_rcc.c 0x00000000   Number         0  stm32f4xx_rcc.o ABSOLUTE
    ..\..\Library\STM32F40x_StdPeriph_Driver\src\stm32f4xx_rtc.c 0x00000000   Number         0  stm32f4xx_rtc.o ABSOLUTE
    ..\..\Library\STM32F40x_StdPeriph_Driver\src\stm32f4xx_sdio.c 0x00000000   Number         0  stm32f4xx_sdio.o ABSOLUTE
    ..\..\Library\STM32F40x_StdPeriph_Driver\src\stm32f4xx_spi.c 0x00000000   Number         0  stm32f4xx_spi.o ABSOLUTE
    ..\..\Library\STM32F40x_StdPeriph_Driver\src\stm32f4xx_syscfg.c 0x00000000   Number         0  stm32f4xx_syscfg.o ABSOLUTE
    ..\..\Library\STM32F40x_StdPeriph_Driver\src\stm32f4xx_tim.c 0x00000000   Number         0  stm32f4xx_tim.o ABSOLUTE
    ..\..\Library\STM32F40x_StdPeriph_Driver\src\stm32f4xx_usart.c 0x00000000   Number         0  stm32f4xx_usart.o ABSOLUTE
    ..\..\Library\STM32F40x_StdPeriph_Driver\src\stm32f4xx_wwdg.c 0x00000000   Number         0  stm32f4xx_wwdg.o ABSOLUTE
    ..\..\Library\STM32F4x7_ETH_Driver\src\stm32f4x7_eth.c 0x00000000   Number         0  stm32f4x7_eth.o ABSOLUTE
    ..\..\Lwip\src\api\api_lib.c             0x00000000   Number         0  api_lib.o ABSOLUTE
    ..\..\Lwip\src\api\api_msg.c             0x00000000   Number         0  api_msg.o ABSOLUTE
    ..\..\Lwip\src\api\err.c                 0x00000000   Number         0  err.o ABSOLUTE
    ..\..\Lwip\src\api\netbuf.c              0x00000000   Number         0  netbuf.o ABSOLUTE
    ..\..\Lwip\src\api\netdb.c               0x00000000   Number         0  netdb.o ABSOLUTE
    ..\..\Lwip\src\api\netifapi.c            0x00000000   Number         0  netifapi.o ABSOLUTE
    ..\..\Lwip\src\api\sockets.c             0x00000000   Number         0  sockets.o ABSOLUTE
    ..\..\Lwip\src\api\tcpip.c               0x00000000   Number         0  tcpip.o ABSOLUTE
    ..\..\Lwip\src\arch\sys_arch.c           0x00000000   Number         0  sys_arch.o ABSOLUTE
    ..\..\Lwip\src\core\def.c                0x00000000   Number         0  def.o ABSOLUTE
    ..\..\Lwip\src\core\dhcp.c               0x00000000   Number         0  dhcp.o ABSOLUTE
    ..\..\Lwip\src\core\dns.c                0x00000000   Number         0  dns.o ABSOLUTE
    ..\..\Lwip\src\core\init.c               0x00000000   Number         0  init.o ABSOLUTE
    ..\..\Lwip\src\core\ipv4\autoip.c        0x00000000   Number         0  autoip.o ABSOLUTE
    ..\..\Lwip\src\core\ipv4\icmp.c          0x00000000   Number         0  icmp.o ABSOLUTE
    ..\..\Lwip\src\core\ipv4\igmp.c          0x00000000   Number         0  igmp.o ABSOLUTE
    ..\..\Lwip\src\core\ipv4\inet.c          0x00000000   Number         0  inet.o ABSOLUTE
    ..\..\Lwip\src\core\ipv4\inet_chksum.c   0x00000000   Number         0  inet_chksum.o ABSOLUTE
    ..\..\Lwip\src\core\ipv4\ip.c            0x00000000   Number         0  ip.o ABSOLUTE
    ..\..\Lwip\src\core\ipv4\ip_addr.c       0x00000000   Number         0  ip_addr.o ABSOLUTE
    ..\..\Lwip\src\core\ipv4\ip_frag.c       0x00000000   Number         0  ip_frag.o ABSOLUTE
    ..\..\Lwip\src\core\mem.c                0x00000000   Number         0  mem_1.o ABSOLUTE
    ..\..\Lwip\src\core\memp.c               0x00000000   Number         0  memp.o ABSOLUTE
    ..\..\Lwip\src\core\netif.c              0x00000000   Number         0  netif.o ABSOLUTE
    ..\..\Lwip\src\core\pbuf.c               0x00000000   Number         0  pbuf.o ABSOLUTE
    ..\..\Lwip\src\core\raw.c                0x00000000   Number         0  raw.o ABSOLUTE
    ..\..\Lwip\src\core\stats.c              0x00000000   Number         0  stats.o ABSOLUTE
    ..\..\Lwip\src\core\sys.c                0x00000000   Number         0  sys.o ABSOLUTE
    ..\..\Lwip\src\core\tcp.c                0x00000000   Number         0  tcp.o ABSOLUTE
    ..\..\Lwip\src\core\tcp_in.c             0x00000000   Number         0  tcp_in.o ABSOLUTE
    ..\..\Lwip\src\core\tcp_out.c            0x00000000   Number         0  tcp_out.o ABSOLUTE
    ..\..\Lwip\src\core\timers.c             0x00000000   Number         0  timers.o ABSOLUTE
    ..\..\Lwip\src\core\udp.c                0x00000000   Number         0  udp.o ABSOLUTE
    ..\..\Lwip\src\netif\etharp.c            0x00000000   Number         0  etharp.o ABSOLUTE
    ..\..\Lwip\src\netif\ethernetif.c        0x00000000   Number         0  ethernetif.o ABSOLUTE
    ..\..\Lwip\web_server\fs.c               0x00000000   Number         0  fs.o ABSOLUTE
    ..\..\Lwip\web_server\httpd.c            0x00000000   Number         0  httpd.o ABSOLUTE
    ..\..\Lwip\web_server\httpd_cgi_ssi.c    0x00000000   Number         0  httpd_cgi_ssi.o ABSOLUTE
    ..\..\RTOS\kernel\clock.c                0x00000000   Number         0  clock.o ABSOLUTE
    ..\..\RTOS\kernel\device.c               0x00000000   Number         0  device.o ABSOLUTE
    ..\..\RTOS\kernel\idle.c                 0x00000000   Number         0  idle.o ABSOLUTE
    ..\..\RTOS\kernel\ipc.c                  0x00000000   Number         0  ipc.o ABSOLUTE
    ..\..\RTOS\kernel\irq.c                  0x00000000   Number         0  irq.o ABSOLUTE
    ..\..\RTOS\kernel\kservice.c             0x00000000   Number         0  kservice.o ABSOLUTE
    ..\..\RTOS\kernel\mem.c                  0x00000000   Number         0  mem.o ABSOLUTE
    ..\..\RTOS\kernel\memheap.c              0x00000000   Number         0  memheap.o ABSOLUTE
    ..\..\RTOS\kernel\mempool.c              0x00000000   Number         0  mempool.o ABSOLUTE
    ..\..\RTOS\kernel\object.c               0x00000000   Number         0  object.o ABSOLUTE
    ..\..\RTOS\kernel\scheduler.c            0x00000000   Number         0  scheduler.o ABSOLUTE
    ..\..\RTOS\kernel\slab.c                 0x00000000   Number         0  slab.o ABSOLUTE
    ..\..\RTOS\kernel\thread.c               0x00000000   Number         0  thread.o ABSOLUTE
    ..\..\RTOS\kernel\timer.c                0x00000000   Number         0  timer_1.o ABSOLUTE
    ..\..\RTOS\port\context_rvds.S           0x00000000   Number         0  context_rvds.o ABSOLUTE
    ..\..\RTOS\port\cpuport.c                0x00000000   Number         0  cpuport.o ABSOLUTE
    ..\\..\\App\\antenna_sw.c                0x00000000   Number         0  antenna_sw.o ABSOLUTE
    ..\\..\\App\\application.c               0x00000000   Number         0  application.o ABSOLUTE
    ..\\..\\App\\common.c                    0x00000000   Number         0  common.o ABSOLUTE
    ..\\..\\App\\fpga_upgrade.c              0x00000000   Number         0  fpga_upgrade.o ABSOLUTE
    ..\\..\\App\\interface.c                 0x00000000   Number         0  interface.o ABSOLUTE
    ..\\..\\App\\startup.c                   0x00000000   Number         0  startup.o ABSOLUTE
    ..\\..\\App\\uart_protocol.c             0x00000000   Number         0  uart_protocol.o ABSOLUTE
    ..\\..\\App\\udp_connect.c               0x00000000   Number         0  udp_connect.o ABSOLUTE
    ..\\..\\App\\upgrade.c                   0x00000000   Number         0  upgrade.o ABSOLUTE
    ..\\..\\App\\ymodem.c                    0x00000000   Number         0  ymodem.o ABSOLUTE
    ..\\..\\Bsp\\board.c                     0x00000000   Number         0  board.o ABSOLUTE
    ..\\..\\Bsp\\stm32f4_eth.c               0x00000000   Number         0  stm32f4_eth.o ABSOLUTE
    ..\\..\\Bsp\\stm32f4_i2c.c               0x00000000   Number         0  stm32f4_i2c.o ABSOLUTE
    ..\\..\\Bsp\\stm32f4_spi.c               0x00000000   Number         0  stm32f4_spi.o ABSOLUTE
    ..\\..\\Bsp\\stm32f4_uart.c              0x00000000   Number         0  stm32f4_uart.o ABSOLUTE
    ..\\..\\Bsp\\timer.c                     0x00000000   Number         0  timer.o ABSOLUTE
    ..\\..\\CMSIS\\system_stm32f4xx.c        0x00000000   Number         0  system_stm32f4xx.o ABSOLUTE
    ..\\..\\Drive\\serial.c                  0x00000000   Number         0  serial.o ABSOLUTE
    ..\\..\\Library\\Finsh\\cmd.c            0x00000000   Number         0  cmd.o ABSOLUTE
    ..\\..\\Library\\STM32F40x_StdPeriph_Driver\\src\\misc.c 0x00000000   Number         0  misc.o ABSOLUTE
    ..\\..\\Library\\STM32F40x_StdPeriph_Driver\\src\\stm32f4xx_adc.c 0x00000000   Number         0  stm32f4xx_adc.o ABSOLUTE
    ..\\..\\Library\\STM32F40x_StdPeriph_Driver\\src\\stm32f4xx_can.c 0x00000000   Number         0  stm32f4xx_can.o ABSOLUTE
    ..\\..\\Library\\STM32F40x_StdPeriph_Driver\\src\\stm32f4xx_cec.c 0x00000000   Number         0  stm32f4xx_cec.o ABSOLUTE
    ..\\..\\Library\\STM32F40x_StdPeriph_Driver\\src\\stm32f4xx_crc.c 0x00000000   Number         0  stm32f4xx_crc.o ABSOLUTE
    ..\\..\\Library\\STM32F40x_StdPeriph_Driver\\src\\stm32f4xx_dac.c 0x00000000   Number         0  stm32f4xx_dac.o ABSOLUTE
    ..\\..\\Library\\STM32F40x_StdPeriph_Driver\\src\\stm32f4xx_dbgmcu.c 0x00000000   Number         0  stm32f4xx_dbgmcu.o ABSOLUTE
    ..\\..\\Library\\STM32F40x_StdPeriph_Driver\\src\\stm32f4xx_dma.c 0x00000000   Number         0  stm32f4xx_dma.o ABSOLUTE
    ..\\..\\Library\\STM32F40x_StdPeriph_Driver\\src\\stm32f4xx_exti.c 0x00000000   Number         0  stm32f4xx_exti.o ABSOLUTE
    ..\\..\\Library\\STM32F40x_StdPeriph_Driver\\src\\stm32f4xx_flash.c 0x00000000   Number         0  stm32f4xx_flash.o ABSOLUTE
    ..\\..\\Library\\STM32F40x_StdPeriph_Driver\\src\\stm32f4xx_gpio.c 0x00000000   Number         0  stm32f4xx_gpio.o ABSOLUTE
    ..\\..\\Library\\STM32F40x_StdPeriph_Driver\\src\\stm32f4xx_i2c.c 0x00000000   Number         0  stm32f4xx_i2c.o ABSOLUTE
    ..\\..\\Library\\STM32F40x_StdPeriph_Driver\\src\\stm32f4xx_iwdg.c 0x00000000   Number         0  stm32f4xx_iwdg.o ABSOLUTE
    ..\\..\\Library\\STM32F40x_StdPeriph_Driver\\src\\stm32f4xx_lptim.c 0x00000000   Number         0  stm32f4xx_lptim.o ABSOLUTE
    ..\\..\\Library\\STM32F40x_StdPeriph_Driver\\src\\stm32f4xx_pwr.c 0x00000000   Number         0  stm32f4xx_pwr.o ABSOLUTE
    ..\\..\\Library\\STM32F40x_StdPeriph_Driver\\src\\stm32f4xx_rcc.c 0x00000000   Number         0  stm32f4xx_rcc.o ABSOLUTE
    ..\\..\\Library\\STM32F40x_StdPeriph_Driver\\src\\stm32f4xx_rtc.c 0x00000000   Number         0  stm32f4xx_rtc.o ABSOLUTE
    ..\\..\\Library\\STM32F40x_StdPeriph_Driver\\src\\stm32f4xx_sdio.c 0x00000000   Number         0  stm32f4xx_sdio.o ABSOLUTE
    ..\\..\\Library\\STM32F40x_StdPeriph_Driver\\src\\stm32f4xx_spi.c 0x00000000   Number         0  stm32f4xx_spi.o ABSOLUTE
    ..\\..\\Library\\STM32F40x_StdPeriph_Driver\\src\\stm32f4xx_syscfg.c 0x00000000   Number         0  stm32f4xx_syscfg.o ABSOLUTE
    ..\\..\\Library\\STM32F40x_StdPeriph_Driver\\src\\stm32f4xx_tim.c 0x00000000   Number         0  stm32f4xx_tim.o ABSOLUTE
    ..\\..\\Library\\STM32F40x_StdPeriph_Driver\\src\\stm32f4xx_usart.c 0x00000000   Number         0  stm32f4xx_usart.o ABSOLUTE
    ..\\..\\Library\\STM32F40x_StdPeriph_Driver\\src\\stm32f4xx_wwdg.c 0x00000000   Number         0  stm32f4xx_wwdg.o ABSOLUTE
    ..\\..\\Library\\STM32F4x7_ETH_Driver\\src\\stm32f4x7_eth.c 0x00000000   Number         0  stm32f4x7_eth.o ABSOLUTE
    ..\\..\\Lwip\\src\\netif\\ethernetif.c   0x00000000   Number         0  ethernetif.o ABSOLUTE
    ..\\..\\Lwip\\web_server\\httpd_cgi_ssi.c 0x00000000   Number         0  httpd_cgi_ssi.o ABSOLUTE
    dc.s                                     0x00000000   Number         0  dc.o ABSOLUTE
    RESET                                    0x08000000   Section      392  startup_stm32f40xx.o(RESET)
    !!!main                                  0x08000188   Section        8  __main.o(!!!main)
    !!!scatter                               0x08000190   Section       52  __scatter.o(!!!scatter)
    !!dczerorl2                              0x080001c4   Section       90  __dczerorl2.o(!!dczerorl2)
    !!handler_zi                             0x08000220   Section       28  __scatter_zi.o(!!handler_zi)
    .ARM.Collect$$_printf_percent$$00000000  0x0800023c   Section        0  _printf_percent.o(.ARM.Collect$$_printf_percent$$00000000)
    .ARM.Collect$$_printf_percent$$00000003  0x0800023c   Section        6  _printf_f.o(.ARM.Collect$$_printf_percent$$00000003)
    .ARM.Collect$$_printf_percent$$00000009  0x08000242   Section        6  _printf_d.o(.ARM.Collect$$_printf_percent$$00000009)
    .ARM.Collect$$_printf_percent$$00000017  0x08000248   Section        4  _printf_percent_end.o(.ARM.Collect$$_printf_percent$$00000017)
    .ARM.Collect$$libinit$$00000000          0x0800024c   Section        2  libinit.o(.ARM.Collect$$libinit$$00000000)
    .ARM.Collect$$libinit$$00000001          0x0800024e   Section        4  libinit2.o(.ARM.Collect$$libinit$$00000001)
    .ARM.Collect$$libinit$$00000004          0x08000252   Section        0  libinit2.o(.ARM.Collect$$libinit$$00000004)
    .ARM.Collect$$libinit$$0000000A          0x08000252   Section        0  libinit2.o(.ARM.Collect$$libinit$$0000000A)
    .ARM.Collect$$libinit$$0000000C          0x08000252   Section        0  libinit2.o(.ARM.Collect$$libinit$$0000000C)
    .ARM.Collect$$libinit$$0000000E          0x08000252   Section        0  libinit2.o(.ARM.Collect$$libinit$$0000000E)
    .ARM.Collect$$libinit$$0000000F          0x08000252   Section        6  libinit2.o(.ARM.Collect$$libinit$$0000000F)
    .ARM.Collect$$libinit$$00000011          0x08000258   Section        0  libinit2.o(.ARM.Collect$$libinit$$00000011)
    .ARM.Collect$$libinit$$00000013          0x08000258   Section        0  libinit2.o(.ARM.Collect$$libinit$$00000013)
    .ARM.Collect$$libinit$$00000015          0x08000258   Section        0  libinit2.o(.ARM.Collect$$libinit$$00000015)
    .ARM.Collect$$libinit$$00000016          0x08000258   Section       10  libinit2.o(.ARM.Collect$$libinit$$00000016)
    .ARM.Collect$$libinit$$00000017          0x08000262   Section        0  libinit2.o(.ARM.Collect$$libinit$$00000017)
    .ARM.Collect$$libinit$$00000019          0x08000262   Section        0  libinit2.o(.ARM.Collect$$libinit$$00000019)
    .ARM.Collect$$libinit$$0000001B          0x08000262   Section        0  libinit2.o(.ARM.Collect$$libinit$$0000001B)
    .ARM.Collect$$libinit$$0000001D          0x08000262   Section        0  libinit2.o(.ARM.Collect$$libinit$$0000001D)
    .ARM.Collect$$libinit$$0000001F          0x08000262   Section        0  libinit2.o(.ARM.Collect$$libinit$$0000001F)
    .ARM.Collect$$libinit$$00000021          0x08000262   Section        0  libinit2.o(.ARM.Collect$$libinit$$00000021)
    .ARM.Collect$$libinit$$00000023          0x08000262   Section        0  libinit2.o(.ARM.Collect$$libinit$$00000023)
    .ARM.Collect$$libinit$$00000025          0x08000262   Section        0  libinit2.o(.ARM.Collect$$libinit$$00000025)
    .ARM.Collect$$libinit$$0000002C          0x08000262   Section        0  libinit2.o(.ARM.Collect$$libinit$$0000002C)
    .ARM.Collect$$libinit$$0000002E          0x08000262   Section        0  libinit2.o(.ARM.Collect$$libinit$$0000002E)
    .ARM.Collect$$libinit$$00000030          0x08000262   Section        0  libinit2.o(.ARM.Collect$$libinit$$00000030)
    .ARM.Collect$$libinit$$00000032          0x08000262   Section        0  libinit2.o(.ARM.Collect$$libinit$$00000032)
    .ARM.Collect$$libinit$$00000033          0x08000262   Section        2  libinit2.o(.ARM.Collect$$libinit$$00000033)
    .ARM.Collect$$libshutdown$$00000000      0x08000264   Section        2  libshutdown.o(.ARM.Collect$$libshutdown$$00000000)
    .ARM.Collect$$libshutdown$$00000003      0x08000266   Section        0  libshutdown2.o(.ARM.Collect$$libshutdown$$00000003)
    .ARM.Collect$$libshutdown$$00000006      0x08000266   Section        0  libshutdown2.o(.ARM.Collect$$libshutdown$$00000006)
    .ARM.Collect$$libshutdown$$00000009      0x08000266   Section        0  libshutdown2.o(.ARM.Collect$$libshutdown$$00000009)
    .ARM.Collect$$libshutdown$$0000000B      0x08000266   Section        0  libshutdown2.o(.ARM.Collect$$libshutdown$$0000000B)
    .ARM.Collect$$libshutdown$$0000000E      0x08000266   Section        0  libshutdown2.o(.ARM.Collect$$libshutdown$$0000000E)
    .ARM.Collect$$libshutdown$$0000000F      0x08000266   Section        2  libshutdown2.o(.ARM.Collect$$libshutdown$$0000000F)
    .ARM.Collect$$rtentry$$00000000          0x08000268   Section        0  __rtentry.o(.ARM.Collect$$rtentry$$00000000)
    .ARM.Collect$$rtentry$$00000002          0x08000268   Section        0  __rtentry2.o(.ARM.Collect$$rtentry$$00000002)
    .ARM.Collect$$rtentry$$00000004          0x08000268   Section        6  __rtentry4.o(.ARM.Collect$$rtentry$$00000004)
    .ARM.Collect$$rtentry$$00000009          0x0800026e   Section        0  __rtentry2.o(.ARM.Collect$$rtentry$$00000009)
    .ARM.Collect$$rtentry$$0000000A          0x0800026e   Section        4  __rtentry2.o(.ARM.Collect$$rtentry$$0000000A)
    .ARM.Collect$$rtentry$$0000000C          0x08000272   Section        0  __rtentry2.o(.ARM.Collect$$rtentry$$0000000C)
    .ARM.Collect$$rtentry$$0000000D          0x08000272   Section        8  __rtentry2.o(.ARM.Collect$$rtentry$$0000000D)
    .ARM.Collect$$rtexit$$00000000           0x0800027a   Section        2  rtexit.o(.ARM.Collect$$rtexit$$00000000)
    .ARM.Collect$$rtexit$$00000002           0x0800027c   Section        0  rtexit2.o(.ARM.Collect$$rtexit$$00000002)
    .ARM.Collect$$rtexit$$00000003           0x0800027c   Section        4  rtexit2.o(.ARM.Collect$$rtexit$$00000003)
    .ARM.Collect$$rtexit$$00000004           0x08000280   Section        6  rtexit2.o(.ARM.Collect$$rtexit$$00000004)
    .text                                    0x08000288   Section        0  startup.o(.text)
    .text                                    0x0800041c   Section        0  application.o(.text)
    .text                                    0x080006dc   Section        0  common.o(.text)
    .text                                    0x08000838   Section        0  interface.o(.text)
    .text                                    0x08000a5c   Section        0  queue.o(.text)
    .text                                    0x08000b3c   Section        0  fpga_upgrade.o(.text)
    delay_ms                                 0x08000b3d   Thumb Code    32  fpga_upgrade.o(.text)
    .text                                    0x08000c9c   Section        0  mcu_api.o(.text)
    delay_ms                                 0x08000c9d   Thumb Code    32  mcu_api.o(.text)
    .text                                    0x080010e8   Section        0  spansion.o(.text)
    delay_ms                                 0x080010e9   Thumb Code    32  spansion.o(.text)
    spansion_wait_ready                      0x08001109   Thumb Code    82  spansion.o(.text)
    spansion_read_fast                       0x0800115b   Thumb Code    86  spansion.o(.text)
    spansion_write                           0x080011b1   Thumb Code   208  spansion.o(.text)
    .text                                    0x0800158c   Section        0  spi_flash.o(.text)
    delay_ms                                 0x0800158d   Thumb Code    32  spi_flash.o(.text)
    .text                                    0x08001758   Section        0  upgrade.o(.text)
    .text                                    0x080017cc   Section        0  ymodem.o(.text)
    str_to_u32                               0x080017cd   Thumb Code    44  ymodem.o(.text)
    Receive_Packet                           0x080017f9   Thumb Code   194  ymodem.o(.text)
    .text                                    0x08001ef8   Section        0  antenna_sw.o(.text)
    .text                                    0x080020cc   Section        0  uart_protocol.o(.text)
    uart_input                               0x08002193   Thumb Code    16  uart_protocol.o(.text)
    len_error                                0x080021f9   Thumb Code    66  uart_protocol.o(.text)
    .text                                    0x080029f8   Section        0  board.o(.text)
    .text                                    0x08002b9c   Section        0  stm32f4_eth.o(.text)
    rt_stm32_eth_init                        0x08002b9d   Thumb Code   110  stm32f4_eth.o(.text)
    rt_stm32_eth_open                        0x08002c0b   Thumb Code     6  stm32f4_eth.o(.text)
    rt_stm32_eth_close                       0x08002c11   Thumb Code     6  stm32f4_eth.o(.text)
    rt_stm32_eth_read                        0x08002c17   Thumb Code    26  stm32f4_eth.o(.text)
    rt_stm32_eth_write                       0x08002c31   Thumb Code    26  stm32f4_eth.o(.text)
    rt_stm32_eth_control                     0x08002c4b   Thumb Code    42  stm32f4_eth.o(.text)
    GPIO_Configuration                       0x08002d83   Thumb Code   306  stm32f4_eth.o(.text)
    NVIC_Configuration                       0x08002eb5   Thumb Code    34  stm32f4_eth.o(.text)
    ETH_MACDMA_Config                        0x08002ed7   Thumb Code   372  stm32f4_eth.o(.text)
    .text                                    0x0800317c   Section        0  stm32f4_it.o(.text)
    .text                                    0x08003190   Section        0  stm32f4_spi.o(.text)
    get_spi_BaudRatePrescaler                0x08003191   Thumb Code   264  stm32f4_spi.o(.text)
    spi_dma_init                             0x08003299   Thumb Code   196  stm32f4_spi.o(.text)
    configure                                0x0800335d   Thumb Code   220  stm32f4_spi.o(.text)
    xfer                                     0x08003439   Thumb Code   276  stm32f4_spi.o(.text)
    RCC_Configuration                        0x0800354d   Thumb Code   172  stm32f4_spi.o(.text)
    GPIO_Configuration                       0x080035f9   Thumb Code    72  stm32f4_spi.o(.text)
    NVIC_Configuration                       0x08003641   Thumb Code     2  stm32f4_spi.o(.text)
    DMA_Configuration                        0x08003643   Thumb Code     2  stm32f4_spi.o(.text)
    .text                                    0x080036b8   Section        0  stm32f4_uart.o(.text)
    RCC_Configuration                        0x080036d3   Thumb Code    52  stm32f4_uart.o(.text)
    GPIO_Configuration                       0x08003707   Thumb Code    92  stm32f4_uart.o(.text)
    NVIC_Configuration                       0x08003763   Thumb Code    60  stm32f4_uart.o(.text)
    DMA_Configuration                        0x0800379f   Thumb Code     2  stm32f4_uart.o(.text)
    .text                                    0x08003888   Section        0  timer.o(.text)
    .text                                    0x08003914   Section        0  serial.o(.text)
    rt_serial_enable_rx_dma                  0x08003915   Thumb Code    42  serial.o(.text)
    rt_serial_enable_tx_dma                  0x0800393f   Thumb Code    42  serial.o(.text)
    rt_serial_init                           0x08003969   Thumb Code   194  serial.o(.text)
    rt_serial_open                           0x08003a2b   Thumb Code     6  serial.o(.text)
    rt_serial_close                          0x08003a31   Thumb Code     6  serial.o(.text)
    rt_serial_read                           0x08003a37   Thumb Code   300  serial.o(.text)
    rt_serial_write                          0x08003b63   Thumb Code   266  serial.o(.text)
    rt_serial_control                        0x08003c6d   Thumb Code    78  serial.o(.text)
    .text                                    0x080040b0   Section        0  spi_bus.o(.text)
    spi_device_init                          0x080043cd   Thumb Code     6  spi_bus.o(.text)
    spi_device_read                          0x080043d3   Thumb Code    72  spi_bus.o(.text)
    spi_device_write                         0x0800441b   Thumb Code    72  spi_bus.o(.text)
    spi_device_control                       0x08004463   Thumb Code   134  spi_bus.o(.text)
    .text                                    0x080045ec   Section        0  cmd.o(.text)
    rt_list_len                              0x080045ed   Thumb Code    20  cmd.o(.text)
    _list_thread                             0x08004617   Thumb Code   174  cmd.o(.text)
    show_wait_queue                          0x080046cf   Thumb Code    40  cmd.o(.text)
    _list_sem                                0x080046f7   Thumb Code   108  cmd.o(.text)
    _list_event                              0x0800476f   Thumb Code    96  cmd.o(.text)
    _list_mutex                              0x080047db   Thumb Code    68  cmd.o(.text)
    _list_mailbox                            0x0800482b   Thumb Code   120  cmd.o(.text)
    _list_msgqueue                           0x080048af   Thumb Code   108  cmd.o(.text)
    _list_mempool                            0x08004927   Thumb Code   102  cmd.o(.text)
    _list_timer                              0x08004999   Thumb Code  1080  cmd.o(.text)
    _list_device                             0x08004ddb   Thumb Code    88  cmd.o(.text)
    rt_list_isempty                          0x08005041   Thumb Code    16  cmd.o(.text)
    .text                                    0x0800517c   Section        0  msh.o(.text)
    msh_split                                0x080051c3   Thumb Code   154  msh.o(.text)
    msh_get_cmd                              0x0800525d   Thumb Code    76  msh.o(.text)
    _msh_exec_cmd                            0x080052a9   Thumb Code   136  msh.o(.text)
    str_common                               0x08005383   Thumb Code    32  msh.o(.text)
    .text                                    0x08005490   Section        0  shell.o(.text)
    finsh_rx_ind                             0x080054b7   Thumb Code    34  shell.o(.text)
    shell_auto_complete                      0x080055cf   Thumb Code    42  shell.o(.text)
    shell_handle_history                     0x080055f9   Thumb Code    32  shell.o(.text)
    shell_push_history                       0x08005619   Thumb Code   162  shell.o(.text)
    .text                                    0x08005dcc   Section        0  clock.o(.text)
    .text                                    0x08005e2c   Section        0  device.o(.text)
    .text                                    0x08006168   Section        0  idle.o(.text)
    rt_thread_idle_entry                     0x08006207   Thumb Code     8  idle.o(.text)
    _has_defunct_thread                      0x08006235   Thumb Code    16  idle.o(.text)
    .text                                    0x08006288   Section        0  ipc.o(.text)
    rt_list_insert_before                    0x08006289   Thumb Code    14  ipc.o(.text)
    rt_ipc_list_suspend                      0x08006297   Thumb Code   108  ipc.o(.text)
    rt_ipc_list_resume_all                   0x08006303   Thumb Code    50  ipc.o(.text)
    rt_list_init                             0x08007745   Thumb Code     6  ipc.o(.text)
    rt_list_isempty                          0x0800774b   Thumb Code    16  ipc.o(.text)
    rt_ipc_object_init                       0x0800775b   Thumb Code    16  ipc.o(.text)
    rt_ipc_list_resume                       0x0800776b   Thumb Code    24  ipc.o(.text)
    .text                                    0x08007788   Section        0  irq.o(.text)
    .text                                    0x080077d0   Section        0  kservice.o(.text)
    print_number                             0x08007a7d   Thumb Code   400  kservice.o(.text)
    skip_atoi                                0x08007c0d   Thumb Code    38  kservice.o(.text)
    .text                                    0x0800821c   Section        0  mem.o(.text)
    plug_holes                               0x0800821d   Thumb Code   160  mem.o(.text)
    .text                                    0x08008a50   Section        0  mempool.o(.text)
    rt_list_init                             0x08008d9d   Thumb Code     6  mempool.o(.text)
    rt_list_isempty                          0x08008da3   Thumb Code    16  mempool.o(.text)
    .text                                    0x08008e18   Section        0  object.o(.text)
    rt_list_insert_after                     0x08008e19   Thumb Code    14  object.o(.text)
    rt_list_remove                           0x08008e27   Thumb Code    18  object.o(.text)
    .text                                    0x08009084   Section        0  scheduler.o(.text)
    rt_list_init                             0x08009255   Thumb Code     6  scheduler.o(.text)
    .text                                    0x08009294   Section        0  thread.o(.text)
    rt_list_insert_after                     0x08009295   Thumb Code    14  thread.o(.text)
    rt_list_remove                           0x080092a3   Thumb Code    18  thread.o(.text)
    _rt_thread_init                          0x08009345   Thumb Code   144  thread.o(.text)
    .text                                    0x08009834   Section        0  timer_1.o(.text)
    rt_list_insert_after                     0x08009835   Thumb Code    14  timer_1.o(.text)
    _rt_timer_init                           0x08009843   Thumb Code    70  timer_1.o(.text)
    rt_timer_list_next_timeout               0x08009889   Thumb Code    28  timer_1.o(.text)
    _rt_timer_remove                         0x080098a5   Thumb Code    46  timer_1.o(.text)
    rt_list_init                             0x08009c01   Thumb Code     6  timer_1.o(.text)
    rt_list_isempty                          0x08009c07   Thumb Code    16  timer_1.o(.text)
    .text                                    0x08009c70   Section       64  startup_stm32f40xx.o(.text)
    $v0                                      0x08009c70   Number         0  startup_stm32f40xx.o(.text)
    .text                                    0x08009cb0   Section        0  system_stm32f4xx.o(.text)
    SetSysClock                              0x08009cb1   Thumb Code   220  system_stm32f4xx.o(.text)
    .text                                    0x08009ec0   Section      272  context_rvds.o(.text)
    $v0                                      0x08009ec0   Number         0  context_rvds.o(.text)
    .text                                    0x08009fd0   Section        0  cpuport.o(.text)
    .text                                    0x0800a160   Section        0  rand.o(.text)
    .text                                    0x0800a1ac   Section        0  stdlib.o(.text)
    .text                                    0x0800a290   Section        0  string.o(.text)
    .text                                    0x0800aa3c   Section        0  misc.o(.text)
    .text                                    0x0800ab1c   Section        0  stm32f4xx_dma.o(.text)
    .text                                    0x0800aec4   Section        0  stm32f4xx_gpio.o(.text)
    .text                                    0x0800b158   Section        0  stm32f4xx_rcc.o(.text)
    .text                                    0x0800b7b4   Section        0  stm32f4xx_spi.o(.text)
    .text                                    0x0800bc34   Section        0  stm32f4xx_syscfg.o(.text)
    .text                                    0x0800bcc8   Section        0  stm32f4xx_tim.o(.text)
    TI4_Config                               0x0800c467   Thumb Code    80  stm32f4xx_tim.o(.text)
    TI3_Config                               0x0800c4c9   Thumb Code    72  stm32f4xx_tim.o(.text)
    TI2_Config                               0x0800c52b   Thumb Code    90  stm32f4xx_tim.o(.text)
    TI1_Config                               0x0800c597   Thumb Code    58  stm32f4xx_tim.o(.text)
    .text                                    0x0800c96c   Section        0  stm32f4xx_usart.o(.text)
    .text                                    0x0800cdc0   Section        0  stm32f4x7_eth.o(.text)
    ETH_Delay                                0x0800cdc1   Thumb Code    28  stm32f4x7_eth.o(.text)
    .text                                    0x0800de5c   Section        0  api_lib.o(.text)
    netconn_recv_data                        0x0800e445   Thumb Code   364  api_lib.o(.text)
    netconn_close_shutdown                   0x0800e973   Thumb Code    94  api_lib.o(.text)
    .text                                    0x0800eab8   Section        0  api_msg.o(.text)
    recv_raw                                 0x0800eab9   Thumb Code   152  api_msg.o(.text)
    recv_udp                                 0x0800eb51   Thumb Code   206  api_msg.o(.text)
    recv_tcp                                 0x0800ec1f   Thumb Code   208  api_msg.o(.text)
    err_tcp                                  0x0800ecef   Thumb Code   262  api_msg.o(.text)
    do_writemore                             0x0800edf5   Thumb Code   910  api_msg.o(.text)
    sent_tcp                                 0x0800f183   Thumb Code   128  api_msg.o(.text)
    do_close_internal                        0x0800f203   Thumb Code   452  api_msg.o(.text)
    poll_tcp                                 0x0800f3c7   Thumb Code   368  api_msg.o(.text)
    setup_tcp                                0x0800f537   Thumb Code    50  api_msg.o(.text)
    accept_function                          0x0800f699   Thumb Code   168  api_msg.o(.text)
    pcb_new                                  0x0800f741   Thumb Code   176  api_msg.o(.text)
    netconn_drain                            0x0800f811   Thumb Code   202  api_msg.o(.text)
    do_connected                             0x0800fbc1   Thumb Code   208  api_msg.o(.text)
    .text                                    0x080102ec   Section        0  netbuf.o(.text)
    .text                                    0x08010678   Section        0  netifapi.o(.text)
    .text                                    0x08010770   Section        0  sockets.o(.text)
    get_socket                               0x08010773   Thumb Code    54  sockets.o(.text)
    tryget_socket                            0x080107a9   Thumb Code    42  sockets.o(.text)
    alloc_socket                             0x080107d3   Thumb Code   166  sockets.o(.text)
    free_socket                              0x08010879   Thumb Code    56  sockets.o(.text)
    event_callback                           0x080108b1   Thumb Code   376  sockets.o(.text)
    lwip_selscan                             0x0801158b   Thumb Code   368  sockets.o(.text)
    lwip_getaddrname                         0x08011ba7   Thumb Code   126  sockets.o(.text)
    lwip_getsockopt_internal                 0x08011c51   Thumb Code   534  sockets.o(.text)
    lwip_setsockopt_internal                 0x08012041   Thumb Code   550  sockets.o(.text)
    .text                                    0x0801252c   Section        0  tcpip.o(.text)
    tcpip_thread                             0x0801252d   Thumb Code   220  tcpip.o(.text)
    pbuf_free_int                            0x0801283b   Thumb Code    14  tcpip.o(.text)
    .text                                    0x080128ec   Section        0  sys_arch.o(.text)
    netif_device_init                        0x080128ed   Thumb Code    42  sys_arch.o(.text)
    tcpip_init_done_callback                 0x0801293d   Thumb Code   152  sys_arch.o(.text)
    .text                                    0x0801303c   Section        0  def.o(.text)
    .text                                    0x0801307a   Section        0  init.o(.text)
    .text                                    0x0801309c   Section        0  netif.o(.text)
    .text                                    0x0801339c   Section        0  pbuf.o(.text)
    pbuf_free_ooseq                          0x0801339d   Thumb Code    52  pbuf.o(.text)
    pbuf_free_ooseq_callback                 0x080133d1   Thumb Code    10  pbuf.o(.text)
    pbuf_pool_is_empty                       0x080133db   Thumb Code    62  pbuf.o(.text)
    .text                                    0x08014350   Section        0  raw.o(.text)
    .text                                    0x08014558   Section        0  tcp.o(.text)
    tcp_close_shutdown                       0x08014c39   Thumb Code   450  tcp.o(.text)
    tcp_new_port                             0x08015277   Thumb Code    96  tcp.o(.text)
    tcp_accept_null                          0x0801537b   Thumb Code     8  tcp.o(.text)
    tcp_kill_prio                            0x080156e1   Thumb Code    76  tcp.o(.text)
    tcp_kill_timewait                        0x0801572d   Thumb Code    50  tcp.o(.text)
    .text                                    0x080159d4   Section        0  tcp_in.o(.text)
    tcp_oos_insert_segment                   0x080159d5   Thumb Code   138  tcp_in.o(.text)
    tcp_receive                              0x08015a5f   Thumb Code  3252  tcp_in.o(.text)
    tcp_parseopt                             0x08016713   Thumb Code   338  tcp_in.o(.text)
    tcp_process                              0x08016865   Thumb Code  1540  tcp_in.o(.text)
    tcp_listen_input                         0x08016e69   Thumb Code   268  tcp_in.o(.text)
    tcp_timewait_input                       0x08016f75   Thumb Code   140  tcp_in.o(.text)
    .text                                    0x080176a4   Section        0  tcp_out.o(.text)
    tcp_output_alloc_header                  0x080176a5   Thumb Code   150  tcp_out.o(.text)
    tcp_create_segment                       0x0801773b   Thumb Code   174  tcp_out.o(.text)
    tcp_pbuf_prealloc                        0x080179c9   Thumb Code   144  tcp_out.o(.text)
    tcp_write_checks                         0x08017a59   Thumb Code   456  tcp_out.o(.text)
    tcp_output_segment                       0x0801829d   Thumb Code   224  tcp_out.o(.text)
    .text                                    0x080188d0   Section        0  timers.o(.text)
    tcpip_tcp_timer                          0x08018981   Thumb Code    40  timers.o(.text)
    arp_timer                                0x080189cf   Thumb Code    22  timers.o(.text)
    igmp_timer                               0x080189e5   Thumb Code    20  timers.o(.text)
    .text                                    0x08018b6c   Section        0  udp.o(.text)
    udp_new_port                             0x08018b6f   Thumb Code    80  udp.o(.text)
    .text                                    0x08019118   Section        0  icmp.o(.text)
    icmp_send_response                       0x08019307   Thumb Code   138  icmp.o(.text)
    .text                                    0x080194e4   Section        0  igmp.o(.text)
    igmp_lookup_group                        0x0801951b   Thumb Code    74  igmp.o(.text)
    igmp_start_timer                         0x080195e3   Thumb Code    30  igmp.o(.text)
    igmp_delaying_member                     0x08019601   Thumb Code    42  igmp.o(.text)
    igmp_remove_group                        0x0801964b   Thumb Code    66  igmp.o(.text)
    igmp_ip_output_if                        0x08019785   Thumb Code    60  igmp.o(.text)
    igmp_send                                0x080197c1   Thumb Code   152  igmp.o(.text)
    igmp_timeout                             0x08019adb   Thumb Code    20  igmp.o(.text)
    .text                                    0x08019b90   Section        0  inet_chksum.o(.text)
    lwip_standard_chksum                     0x08019b91   Thumb Code    94  inet_chksum.o(.text)
    .text                                    0x08019e04   Section        0  ip.o(.text)
    .text                                    0x0801a29c   Section        0  ip_addr.o(.text)
    .text                                    0x0801a594   Section        0  etharp.o(.text)
    free_etharp_q                            0x0801a595   Thumb Code   104  etharp.o(.text)
    etharp_free_entry                        0x0801a5fd   Thumb Code    58  etharp.o(.text)
    etharp_find_entry                        0x0801a6c1   Thumb Code   494  etharp.o(.text)
    etharp_send_ip                           0x0801a8af   Thumb Code    84  etharp.o(.text)
    etharp_update_arp_entry                  0x0801a903   Thumb Code   504  etharp.o(.text)
    etharp_arp_input                         0x0801ab9b   Thumb Code   312  etharp.o(.text)
    etharp_raw                               0x0801acd3   Thumb Code   260  etharp.o(.text)
    etharp_output_to_arp_index               0x0801adfb   Thumb Code   142  etharp.o(.text)
    .text                                    0x0801b40c   Section        0  ethernetif.o(.text)
    ethernetif_linkoutput                    0x0801b40d   Thumb Code    38  ethernetif.o(.text)
    eth_netif_device_init                    0x0801b433   Thumb Code    66  ethernetif.o(.text)
    eth_tx_thread_entry                      0x0801b597   Thumb Code    96  ethernetif.o(.text)
    eth_rx_thread_entry                      0x0801b5f7   Thumb Code   156  ethernetif.o(.text)
    low_level_output                         0x0801ba33   Thumb Code    52  ethernetif.o(.text)
    low_level_init                           0x0801ba67   Thumb Code   114  ethernetif.o(.text)
    .text                                    0x0801bb94   Section        0  udp_connect.o(.text)
    mavlink_sha256_calc                      0x0801bb95   Thumb Code   474  udp_connect.o(.text)
    mavlink_sha256_update                    0x0801bd6f   Thumb Code   152  udp_connect.o(.text)
    mavlink_sha256_final_48                  0x0801be07   Thumb Code   170  udp_connect.o(.text)
    mavlink_signature_check                  0x0801beb1   Thumb Code   438  udp_connect.o(.text)
    mavlink_msg_to_send_buffer               0x0801c067   Thumb Code   224  udp_connect.o(.text)
    mavlink_update_checksum                  0x0801c147   Thumb Code    36  udp_connect.o(.text)
    mavlink_frame_char_buffer                0x0801c16b   Thumb Code   878  udp_connect.o(.text)
    _mav_parse_error                         0x0801d26d   Thumb Code     8  udp_connect.o(.text)
    mavlink_start_checksum                   0x0801d275   Thumb Code    12  udp_connect.o(.text)
    mavlink_get_msg_entry                    0x0801d281   Thumb Code    92  udp_connect.o(.text)
    .text                                    0x0801d3e4   Section        0  httpd.o(.text)
    strnstr                                  0x0801d3e5   Thumb Code    74  httpd.o(.text)
    http_state_alloc                         0x0801d42f   Thumb Code    28  httpd.o(.text)
    http_state_free                          0x0801d44b   Thumb Code    42  httpd.o(.text)
    http_write                               0x0801d475   Thumb Code   104  httpd.o(.text)
    get_tag_insert                           0x0801d4dd   Thumb Code   224  httpd.o(.text)
    http_send_data                           0x0801d5bd   Thumb Code  1722  httpd.o(.text)
    http_poll                                0x0801dc77   Thumb Code    72  httpd.o(.text)
    http_close_conn                          0x0801dcbf   Thumb Code   110  httpd.o(.text)
    extract_uri_parameters                   0x0801dd2d   Thumb Code   126  httpd.o(.text)
    http_get_404_file                        0x0801ddab   Thumb Code    54  httpd.o(.text)
    http_init_file                           0x0801dde1   Thumb Code   174  httpd.o(.text)
    http_find_file                           0x0801de8f   Thumb Code   308  httpd.o(.text)
    http_parse_request                       0x0801dfc3   Thumb Code   342  httpd.o(.text)
    http_err                                 0x0801e119   Thumb Code    18  httpd.o(.text)
    http_sent                                0x0801e12b   Thumb Code    36  httpd.o(.text)
    http_recv                                0x0801e14f   Thumb Code   364  httpd.o(.text)
    http_accept                              0x0801e2bb   Thumb Code   114  httpd.o(.text)
    httpd_init_addr                          0x0801e32d   Thumb Code   114  httpd.o(.text)
    .text                                    0x0801e598   Section        0  fs.o(.text)
    fs_malloc                                0x0801e599   Thumb Code    54  fs.o(.text)
    fs_free                                  0x0801e5cf   Thumb Code    48  fs.o(.text)
    .text                                    0x0801e6a0   Section        0  httpd_cgi_ssi.o(.text)
    FindCGIParameter                         0x0801e6a1   Thumb Code    44  httpd_cgi_ssi.o(.text)
    SSIHandler                               0x0801f00d   Thumb Code   234  httpd_cgi_ssi.o(.text)
    .text                                    0x0801f54c   Section        2  use_no_semi_2.o(.text)
    .text                                    0x0801f550   Section        0  noretval__2printf.o(.text)
    .text                                    0x0801f568   Section        0  noretval__2sprintf.o(.text)
    .text                                    0x0801f590   Section        0  __printf.o(.text)
    .text                                    0x0801f5f8   Section        0  _printf_dec.o(.text)
    .text                                    0x0801f670   Section        0  strstr.o(.text)
    .text                                    0x0801f694   Section        0  memcmp.o(.text)
    .text                                    0x0801f6ec   Section        0  strlen.o(.text)
    .text                                    0x0801f72a   Section      138  rt_memcpy_v6.o(.text)
    .text                                    0x0801f7b4   Section      100  rt_memcpy_w.o(.text)
    .text                                    0x0801f818   Section       68  rt_memclr.o(.text)
    .text                                    0x0801f85c   Section       78  rt_memclr_w.o(.text)
    .text                                    0x0801f8aa   Section        0  heapauxi.o(.text)
    .text                                    0x0801f8b0   Section        2  use_no_semi.o(.text)
    .text                                    0x0801f8b2   Section        0  _rserrno.o(.text)
    .text                                    0x0801f8c8   Section        0  _printf_intcommon.o(.text)
    .text                                    0x0801f97a   Section        0  _printf_fp_dec.o(.text)
    _fp_digits                               0x0801f97d   Thumb Code   428  _printf_fp_dec.o(.text)
    .text                                    0x0801fd94   Section        0  _printf_char_common.o(.text)
    _printf_input_char                       0x0801fd95   Thumb Code    10  _printf_char_common.o(.text)
    .text                                    0x0801fdc4   Section        0  _sputc.o(.text)
    .text                                    0x0801fdd0   Section        0  _printf_char_file.o(.text)
    .text                                    0x0801fdf4   Section        8  rt_locale_intlibspace.o(.text)
    .text                                    0x0801fdfc   Section        8  rt_errno_addr_intlibspace.o(.text)
    .text                                    0x0801fe04   Section      138  lludiv10.o(.text)
    .text                                    0x0801fe90   Section        0  _printf_fp_infnan.o(.text)
    .text                                    0x0801ff10   Section        0  bigflt0.o(.text)
    .text                                    0x0801ffec   Section        0  ferror.o(.text)
    .text                                    0x0801fff4   Section        8  libspace.o(.text)
    .text                                    0x0801fffc   Section       74  sys_stackheap_outer.o(.text)
    .text                                    0x08020046   Section        0  exit.o(.text)
    CL$$btod_d2e                             0x08020052   Section       62  btod.o(CL$$btod_d2e)
    CL$$btod_d2e_denorm_low                  0x08020090   Section       70  btod.o(CL$$btod_d2e_denorm_low)
    CL$$btod_d2e_norm_op1                    0x080200d6   Section       96  btod.o(CL$$btod_d2e_norm_op1)
    CL$$btod_div_common                      0x08020136   Section      824  btod.o(CL$$btod_div_common)
    CL$$btod_e2e                             0x0802046e   Section      198  btod.o(CL$$btod_e2e)
    CL$$btod_ediv                            0x08020534   Section       40  btod.o(CL$$btod_ediv)
    CL$$btod_emul                            0x0802055c   Section       40  btod.o(CL$$btod_emul)
    CL$$btod_mult_common                     0x08020584   Section      580  btod.o(CL$$btod_mult_common)
    i.__ARM_fpclassify                       0x080207c8   Section        0  fpclassify.o(i.__ARM_fpclassify)
    i.__ARM_fpclassifyf                      0x080207f8   Section        0  fpclassifyf.o(i.__ARM_fpclassifyf)
    i.__hardfp_asin                          0x08020820   Section        0  asin.o(i.__hardfp_asin)
    i.__hardfp_atan2f                        0x08020b80   Section        0  atan2f.o(i.__hardfp_atan2f)
    i.__kernel_poly                          0x08020dd0   Section        0  poly.o(i.__kernel_poly)
    i.__mathlib_dbl_infnan                   0x08020ec8   Section        0  dunder.o(i.__mathlib_dbl_infnan)
    i.__mathlib_dbl_invalid                  0x08020ee0   Section        0  dunder.o(i.__mathlib_dbl_invalid)
    i.__mathlib_dbl_underflow                0x08020f00   Section        0  dunder.o(i.__mathlib_dbl_underflow)
    i.__mathlib_flt_infnan2                  0x08020f20   Section        0  funder.o(i.__mathlib_flt_infnan2)
    i.__mathlib_flt_underflow                0x08020f28   Section        0  funder.o(i.__mathlib_flt_underflow)
    i.fabs                                   0x08020f38   Section        0  fabs.o(i.fabs)
    i.sqrt                                   0x08020f50   Section        0  sqrt.o(i.sqrt)
    locale$$code                             0x08020fc0   Section       44  lc_numeric_c.o(locale$$code)
    x$fpl$basic                              0x08020fec   Section       24  basic.o(x$fpl$basic)
    $v0                                      0x08020fec   Number         0  basic.o(x$fpl$basic)
    x$fpl$dadd                               0x08021004   Section      336  daddsub_clz.o(x$fpl$dadd)
    $v0                                      0x08021004   Number         0  daddsub_clz.o(x$fpl$dadd)
    _dadd1                                   0x08021015   Thumb Code     0  daddsub_clz.o(x$fpl$dadd)
    x$fpl$dcmpinf                            0x08021154   Section       24  dcmpi.o(x$fpl$dcmpinf)
    $v0                                      0x08021154   Number         0  dcmpi.o(x$fpl$dcmpinf)
    x$fpl$ddiv                               0x0802116c   Section      688  ddiv.o(x$fpl$ddiv)
    $v0                                      0x0802116c   Number         0  ddiv.o(x$fpl$ddiv)
    ddiv_entry                               0x08021173   Thumb Code     0  ddiv.o(x$fpl$ddiv)
    x$fpl$dleqf                              0x0802141c   Section      120  dleqf.o(x$fpl$dleqf)
    $v0                                      0x0802141c   Number         0  dleqf.o(x$fpl$dleqf)
    x$fpl$dmul                               0x08021494   Section      340  dmul.o(x$fpl$dmul)
    $v0                                      0x08021494   Number         0  dmul.o(x$fpl$dmul)
    x$fpl$dnaninf                            0x080215e8   Section      156  dnaninf.o(x$fpl$dnaninf)
    $v0                                      0x080215e8   Number         0  dnaninf.o(x$fpl$dnaninf)
    x$fpl$dretinf                            0x08021684   Section       12  dretinf.o(x$fpl$dretinf)
    $v0                                      0x08021684   Number         0  dretinf.o(x$fpl$dretinf)
    x$fpl$drleqf                             0x08021690   Section      108  drleqf.o(x$fpl$drleqf)
    $v0                                      0x08021690   Number         0  drleqf.o(x$fpl$drleqf)
    x$fpl$drsb                               0x080216fc   Section       22  daddsub_clz.o(x$fpl$drsb)
    $v0                                      0x080216fc   Number         0  daddsub_clz.o(x$fpl$drsb)
    x$fpl$dsqrt                              0x08021714   Section      408  dsqrt_umaal.o(x$fpl$dsqrt)
    $v0                                      0x08021714   Number         0  dsqrt_umaal.o(x$fpl$dsqrt)
    x$fpl$dsub                               0x080218ac   Section      468  daddsub_clz.o(x$fpl$dsub)
    $v0                                      0x080218ac   Number         0  daddsub_clz.o(x$fpl$dsub)
    _dsub1                                   0x080218bd   Thumb Code     0  daddsub_clz.o(x$fpl$dsub)
    x$fpl$f2d                                0x08021a80   Section       86  f2d.o(x$fpl$f2d)
    $v0                                      0x08021a80   Number         0  f2d.o(x$fpl$f2d)
    x$fpl$fnaninf                            0x08021ad6   Section      140  fnaninf.o(x$fpl$fnaninf)
    $v0                                      0x08021ad6   Number         0  fnaninf.o(x$fpl$fnaninf)
    x$fpl$fpinit                             0x08021b62   Section       10  fpinit.o(x$fpl$fpinit)
    $v0                                      0x08021b62   Number         0  fpinit.o(x$fpl$fpinit)
    x$fpl$printf1                            0x08021b6c   Section        4  printf1.o(x$fpl$printf1)
    $v0                                      0x08021b6c   Number         0  printf1.o(x$fpl$printf1)
    .constdata                               0x08021b70   Section       48  spansion.o(.constdata)
    x$fpl$usenofp                            0x08021b70   Section        0  usenofp.o(x$fpl$usenofp)
    spansion_spi_flash_table                 0x08021b70   Data          48  spansion.o(.constdata)
    .constdata                               0x08021ba0   Section       54  stm32f4_spi.o(.constdata)
    __FUNCTION__                             0x08021ba0   Data          26  stm32f4_spi.o(.constdata)
    __FUNCTION__                             0x08021bba   Data          13  stm32f4_spi.o(.constdata)
    __FUNCTION__                             0x08021bc7   Data          10  stm32f4_spi.o(.constdata)
    __FUNCTION__                             0x08021bd1   Data           5  stm32f4_spi.o(.constdata)
    .constdata                               0x08021bd6   Section      184  serial.o(.constdata)
    __FUNCTION__                             0x08021bd6   Data          24  serial.o(.constdata)
    __FUNCTION__                             0x08021bee   Data          24  serial.o(.constdata)
    __FUNCTION__                             0x08021c06   Data          15  serial.o(.constdata)
    __FUNCTION__                             0x08021c15   Data          16  serial.o(.constdata)
    __FUNCTION__                             0x08021c25   Data          18  serial.o(.constdata)
    __FUNCTION__                             0x08021c37   Data          22  serial.o(.constdata)
    __FUNCTION__                             0x08021c4d   Data          17  serial.o(.constdata)
    __FUNCTION__                             0x08021c5e   Data          24  serial.o(.constdata)
    __FUNCTION__                             0x08021c76   Data          24  serial.o(.constdata)
    .constdata                               0x08021c8e   Section      172  spi_bus.o(.constdata)
    __FUNCTION__                             0x08021c8e   Data          22  spi_bus.o(.constdata)
    __FUNCTION__                             0x08021ca4   Data          22  spi_bus.o(.constdata)
    __FUNCTION__                             0x08021cba   Data          16  spi_bus.o(.constdata)
    __FUNCTION__                             0x08021cca   Data          17  spi_bus.o(.constdata)
    __FUNCTION__                             0x08021cdb   Data          16  spi_bus.o(.constdata)
    __FUNCTION__                             0x08021ceb   Data          17  spi_bus.o(.constdata)
    __FUNCTION__                             0x08021cfc   Data          19  spi_bus.o(.constdata)
    __FUNCTION__                             0x08021d0f   Data          23  spi_bus.o(.constdata)
    __FUNCTION__                             0x08021d26   Data          20  spi_bus.o(.constdata)
    .constdata                               0x08021d3c   Section       80  cmd.o(.constdata)
    .constdata                               0x08021d8c   Section       14  msh.o(.constdata)
    __FUNCTION__                             0x08021d8c   Data          14  msh.o(.constdata)
    .constdata                               0x08021d9a   Section       96  shell.o(.constdata)
    __FUNCTION__                             0x08021d9a   Data          13  shell.o(.constdata)
    __FUNCTION__                             0x08021da7   Data          17  shell.o(.constdata)
    __FUNCTION__                             0x08021db8   Data          17  shell.o(.constdata)
    __FUNCTION__                             0x08021dc9   Data          15  shell.o(.constdata)
    __FUNCTION__                             0x08021dd8   Data          15  shell.o(.constdata)
    __FUNCTION__                             0x08021de7   Data          19  shell.o(.constdata)
    .constdata                               0x08021dfa   Section      168  device.o(.constdata)
    __FUNCTION__                             0x08021dfa   Data          21  device.o(.constdata)
    __FUNCTION__                             0x08021e0f   Data          15  device.o(.constdata)
    __FUNCTION__                             0x08021e1e   Data          15  device.o(.constdata)
    __FUNCTION__                             0x08021e2d   Data          16  device.o(.constdata)
    __FUNCTION__                             0x08021e3d   Data          15  device.o(.constdata)
    __FUNCTION__                             0x08021e4c   Data          16  device.o(.constdata)
    __FUNCTION__                             0x08021e5c   Data          18  device.o(.constdata)
    __FUNCTION__                             0x08021e6e   Data          26  device.o(.constdata)
    __FUNCTION__                             0x08021e88   Data          26  device.o(.constdata)
    .constdata                               0x08021ea2   Section       22  idle.o(.constdata)
    __FUNCTION__                             0x08021ea2   Data          22  idle.o(.constdata)
    .constdata                               0x08021eb8   Section      471  ipc.o(.constdata)
    __FUNCTION__                             0x08021eb8   Data          12  ipc.o(.constdata)
    __FUNCTION__                             0x08021ec4   Data          14  ipc.o(.constdata)
    __FUNCTION__                             0x08021ed2   Data          14  ipc.o(.constdata)
    __FUNCTION__                             0x08021ee0   Data          14  ipc.o(.constdata)
    __FUNCTION__                             0x08021eee   Data          12  ipc.o(.constdata)
    __FUNCTION__                             0x08021efa   Data          15  ipc.o(.constdata)
    __FUNCTION__                             0x08021f09   Data          14  ipc.o(.constdata)
    __FUNCTION__                             0x08021f17   Data          16  ipc.o(.constdata)
    __FUNCTION__                             0x08021f27   Data          16  ipc.o(.constdata)
    __FUNCTION__                             0x08021f37   Data          16  ipc.o(.constdata)
    __FUNCTION__                             0x08021f47   Data          14  ipc.o(.constdata)
    __FUNCTION__                             0x08021f55   Data          17  ipc.o(.constdata)
    __FUNCTION__                             0x08021f66   Data          14  ipc.o(.constdata)
    __FUNCTION__                             0x08021f74   Data          16  ipc.o(.constdata)
    __FUNCTION__                             0x08021f84   Data          16  ipc.o(.constdata)
    __FUNCTION__                             0x08021f94   Data          16  ipc.o(.constdata)
    __FUNCTION__                             0x08021fa4   Data          14  ipc.o(.constdata)
    __FUNCTION__                             0x08021fb2   Data          14  ipc.o(.constdata)
    __FUNCTION__                             0x08021fc0   Data          17  ipc.o(.constdata)
    __FUNCTION__                             0x08021fd1   Data          11  ipc.o(.constdata)
    __FUNCTION__                             0x08021fdc   Data          13  ipc.o(.constdata)
    __FUNCTION__                             0x08021fe9   Data          13  ipc.o(.constdata)
    __FUNCTION__                             0x08021ff6   Data          13  ipc.o(.constdata)
    __FUNCTION__                             0x08022003   Data          16  ipc.o(.constdata)
    __FUNCTION__                             0x08022013   Data          11  ipc.o(.constdata)
    __FUNCTION__                             0x0802201e   Data          14  ipc.o(.constdata)
    __FUNCTION__                             0x0802202c   Data          11  ipc.o(.constdata)
    __FUNCTION__                             0x08022037   Data          13  ipc.o(.constdata)
    __FUNCTION__                             0x08022044   Data          13  ipc.o(.constdata)
    __FUNCTION__                             0x08022051   Data          13  ipc.o(.constdata)
    __FUNCTION__                             0x0802205e   Data          11  ipc.o(.constdata)
    __FUNCTION__                             0x08022069   Data          13  ipc.o(.constdata)
    __FUNCTION__                             0x08022076   Data          11  ipc.o(.constdata)
    __FUNCTION__                             0x08022081   Data          14  ipc.o(.constdata)
    .constdata                               0x0802208f   Section      290  kservice.o(.constdata)
    small_digits                             0x0802218f   Data          17  kservice.o(.constdata)
    large_digits                             0x080221a0   Data          17  kservice.o(.constdata)
    .constdata                               0x080221b1   Section       70  mem.o(.constdata)
    __FUNCTION__                             0x080221b1   Data          11  mem.o(.constdata)
    __FUNCTION__                             0x080221bc   Data          20  mem.o(.constdata)
    __FUNCTION__                             0x080221d0   Data          10  mem.o(.constdata)
    __FUNCTION__                             0x080221da   Data          11  mem.o(.constdata)
    __FUNCTION__                             0x080221e5   Data          10  mem.o(.constdata)
    __FUNCTION__                             0x080221ef   Data           8  mem.o(.constdata)
    .constdata                               0x080221f7   Section       62  mempool.o(.constdata)
    __FUNCTION__                             0x080221f7   Data          11  mempool.o(.constdata)
    __FUNCTION__                             0x08022202   Data          13  mempool.o(.constdata)
    __FUNCTION__                             0x0802220f   Data          13  mempool.o(.constdata)
    __FUNCTION__                             0x0802221c   Data          13  mempool.o(.constdata)
    __FUNCTION__                             0x08022229   Data          12  mempool.o(.constdata)
    .constdata                               0x08022235   Section       94  object.o(.constdata)
    __FUNCTION__                             0x08022235   Data          17  object.o(.constdata)
    __FUNCTION__                             0x08022246   Data          19  object.o(.constdata)
    __FUNCTION__                             0x08022259   Data          17  object.o(.constdata)
    __FUNCTION__                             0x0802226a   Data          26  object.o(.constdata)
    __FUNCTION__                             0x08022284   Data          15  object.o(.constdata)
    .constdata                               0x08022293   Section       52  scheduler.o(.constdata)
    __FUNCTION__                             0x08022293   Data          26  scheduler.o(.constdata)
    __FUNCTION__                             0x080222ad   Data          26  scheduler.o(.constdata)
    .constdata                               0x080222c7   Section      170  thread.o(.constdata)
    __FUNCTION__                             0x080222c7   Data          16  thread.o(.constdata)
    __FUNCTION__                             0x080222d7   Data          15  thread.o(.constdata)
    __FUNCTION__                             0x080222e6   Data          18  thread.o(.constdata)
    __FUNCTION__                             0x080222f8   Data          17  thread.o(.constdata)
    __FUNCTION__                             0x08022309   Data          17  thread.o(.constdata)
    __FUNCTION__                             0x0802231a   Data          16  thread.o(.constdata)
    __FUNCTION__                             0x0802232a   Data          18  thread.o(.constdata)
    __FUNCTION__                             0x0802233c   Data          18  thread.o(.constdata)
    __FUNCTION__                             0x0802234e   Data          17  thread.o(.constdata)
    __FUNCTION__                             0x0802235f   Data          18  thread.o(.constdata)
    .constdata                               0x08022371   Section       92  timer_1.o(.constdata)
    __FUNCTION__                             0x08022371   Data          14  timer_1.o(.constdata)
    __FUNCTION__                             0x0802237f   Data          16  timer_1.o(.constdata)
    __FUNCTION__                             0x0802238f   Data          16  timer_1.o(.constdata)
    __FUNCTION__                             0x0802239f   Data          15  timer_1.o(.constdata)
    __FUNCTION__                             0x080223ae   Data          14  timer_1.o(.constdata)
    __FUNCTION__                             0x080223bc   Data          17  timer_1.o(.constdata)
    .constdata                               0x080223cd   Section       19  cpuport.o(.constdata)
    __FUNCTION__                             0x080223cd   Data          19  cpuport.o(.constdata)
    .constdata                               0x080223e0   Section       64  sockets.o(.constdata)
    err_to_errno_table                       0x080223e0   Data          64  sockets.o(.constdata)
    .constdata                               0x08022420   Section      179  sys_arch.o(.constdata)
    __FUNCTION__                             0x08022420   Data          12  sys_arch.o(.constdata)
    __FUNCTION__                             0x0802242c   Data          13  sys_arch.o(.constdata)
    __FUNCTION__                             0x08022439   Data          18  sys_arch.o(.constdata)
    __FUNCTION__                             0x0802244b   Data          14  sys_arch.o(.constdata)
    __FUNCTION__                             0x08022459   Data          15  sys_arch.o(.constdata)
    __FUNCTION__                             0x08022468   Data          15  sys_arch.o(.constdata)
    __FUNCTION__                             0x08022477   Data          13  sys_arch.o(.constdata)
    __FUNCTION__                             0x08022484   Data          14  sys_arch.o(.constdata)
    __FUNCTION__                             0x08022492   Data          14  sys_arch.o(.constdata)
    __FUNCTION__                             0x080224a0   Data          20  sys_arch.o(.constdata)
    __FUNCTION__                             0x080224b4   Data          15  sys_arch.o(.constdata)
    __FUNCTION__                             0x080224c3   Data          16  sys_arch.o(.constdata)
    .constdata                               0x080224d4   Section       28  memp.o(.constdata)
    .constdata                               0x080224f0   Section       80  tcp.o(.constdata)
    .constdata                               0x08022540   Section        8  ip_addr.o(.constdata)
    .constdata                               0x08022548   Section       12  etharp.o(.constdata)
    .constdata                               0x08022554   Section       65  ethernetif.o(.constdata)
    __FUNCTION__                             0x08022554   Data          22  ethernetif.o(.constdata)
    __FUNCTION__                             0x0802256a   Data          20  ethernetif.o(.constdata)
    __FUNCTION__                             0x0802257e   Data          23  ethernetif.o(.constdata)
    .constdata                               0x08022598   Section     2224  udp_connect.o(.constdata)
    mavlink_sha256_constant_256              0x08022598   Data         256  udp_connect.o(.constdata)
    mavlink_message_crcs                     0x08022698   Data        1968  udp_connect.o(.constdata)
    .constdata                               0x08022e48   Section       48  httpd.o(.constdata)
    .constdata                               0x08022e78   Section    15500  fs.o(.constdata)
    data__autoflight_shtm                    0x08022e78   Data        2969  fs.o(.constdata)
    data__configure_shtm                     0x08023a11   Data        3390  fs.o(.constdata)
    data__tuchuan_png                        0x0802474f   Data        9079  fs.o(.constdata)
    .constdata                               0x08026b04   Section      200  httpd_cgi_ssi.o(.constdata)
    ppcURLs                                  0x08026b94   Data          56  httpd_cgi_ssi.o(.constdata)
    .constdata                               0x08026bd0   Section       80  asin.o(.constdata)
    pS                                       0x08026bd0   Data          48  asin.o(.constdata)
    qS                                       0x08026c00   Data          32  asin.o(.constdata)
    .constdata                               0x08026c20   Section      148  bigflt0.o(.constdata)
    tenpwrs_x                                0x08026c20   Data          60  bigflt0.o(.constdata)
    tenpwrs_i                                0x08026c5c   Data          64  bigflt0.o(.constdata)
    .conststring                             0x08026cb4   Section      137  startup.o(.conststring)
    .conststring                             0x08026d40   Section       43  spansion.o(.conststring)
    .conststring                             0x08026d6c   Section      429  cmd.o(.conststring)
    .conststring                             0x08026f1c   Section      237  mem.o(.conststring)
    .conststring                             0x0802700c   Section      117  tcp.o(.conststring)
    .conststring                             0x08027084   Section       85  tcp_out.o(.conststring)
    .conststring                             0x080270dc   Section       68  etharp.o(.conststring)
    .conststring                             0x08027120   Section      114  httpd.o(.conststring)
    .conststring                             0x08027194   Section      158  httpd_cgi_ssi.o(.conststring)
    .rodata.name                             0x08027232   Section     1013  cmd.o(.rodata.name)
    .rodata.name                             0x08027627   Section       33  msh.o(.rodata.name)
    .rodata.name                             0x08027648   Section       39  mem.o(.rodata.name)
    FSymTab                                  0x08027670   Section      324  cmd.o(FSymTab)
    FSymTab                                  0x080277b4   Section       12  msh.o(FSymTab)
    FSymTab                                  0x080277c0   Section       12  mem.o(FSymTab)
    locale$$data                             0x080277ec   Section       28  lc_numeric_c.o(locale$$data)
    __lcnum_c_name                           0x080277f0   Data           2  lc_numeric_c.o(locale$$data)
    __lcnum_c_start                          0x080277f8   Data           0  lc_numeric_c.o(locale$$data)
    __lcnum_c_point                          0x08027804   Data           0  lc_numeric_c.o(locale$$data)
    __lcnum_c_thousands                      0x08027806   Data           0  lc_numeric_c.o(locale$$data)
    __lcnum_c_grouping                       0x08027807   Data           0  lc_numeric_c.o(locale$$data)
    __lcnum_c_end                            0x08027808   Data           0  lc_numeric_c.o(locale$$data)
    .data                                    0x20000000   Section       24  interface.o(.data)
    device                                   0x20000000   Data           4  interface.o(.data)
    config                                   0x20000004   Data           8  interface.o(.data)
    spi_cs                                   0x2000000c   Data           8  interface.o(.data)
    offset                                   0x20000014   Data           4  interface.o(.data)
    .data                                    0x20000018   Section       24  fpga_upgrade.o(.data)
    config                                   0x20000018   Data           8  fpga_upgrade.o(.data)
    spi_cs                                   0x20000020   Data           8  fpga_upgrade.o(.data)
    offset                                   0x2000002c   Data           4  fpga_upgrade.o(.data)
    .data                                    0x20000030   Section       16  uart_protocol.o(.data)
    rd_index                                 0x20000030   Data           2  uart_protocol.o(.data)
    .data                                    0x20000040   Section        9  stm32f4_spi.o(.data)
    stm32_spi_ops                            0x20000040   Data           8  stm32f4_spi.o(.data)
    dummy0                                   0x20000048   Data           1  stm32f4_spi.o(.data)
    .data                                    0x2000004c   Section       28  stm32f4_uart.o(.data)
    .data                                    0x20000068   Section        1  timer.o(.data)
    .data                                    0x2000006c   Section        4  shell.o(.data)
    .data                                    0x20000070   Section       16  symbol.o(.data)
    .data                                    0x20000080   Section        4  clock.o(.data)
    rt_tick                                  0x20000080   Data           4  clock.o(.data)
    .data                                    0x20000084   Section        1  irq.o(.data)
    .data                                    0x20000088   Section       12  kservice.o(.data)
    _errno                                   0x20000088   Data           4  kservice.o(.data)
    _console_device                          0x2000008c   Data           4  kservice.o(.data)
    .data                                    0x20000094   Section       24  mem.o(.data)
    heap_ptr                                 0x20000094   Data           4  mem.o(.data)
    heap_end                                 0x20000098   Data           4  mem.o(.data)
    lfree                                    0x2000009c   Data           4  mem.o(.data)
    mem_size_aligned                         0x200000a0   Data           4  mem.o(.data)
    used_mem                                 0x200000a4   Data           4  mem.o(.data)
    max_mem                                  0x200000a8   Data           4  mem.o(.data)
    .data                                    0x200000ac   Section      144  object.o(.data)
    .data                                    0x2000013c   Section       24  scheduler.o(.data)
    rt_scheduler_lock_nest                   0x2000013c   Data           2  scheduler.o(.data)
    .data                                    0x20000154   Section       12  timer_1.o(.data)
    rt_timer_list                            0x20000154   Data           8  timer_1.o(.data)
    random_nr                                0x2000015c   Data           4  timer_1.o(.data)
    .data                                    0x20000160   Section       20  system_stm32f4xx.o(.data)
    .data                                    0x20000174   Section       16  cpuport.o(.data)
    rt_exception_hook                        0x20000180   Data           4  cpuport.o(.data)
    .data                                    0x20000184   Section        4  rand.o(.data)
    _seed                                    0x20000184   Data           4  rand.o(.data)
    .data                                    0x20000188   Section      260  string.o(.data)
    strtok_pos                               0x20000288   Data           4  string.o(.data)
    .data                                    0x2000028c   Section       16  stm32f4xx_rcc.o(.data)
    APBAHBPrescTable                         0x2000028c   Data          16  stm32f4xx_rcc.o(.data)
    .data                                    0x2000029c   Section       16  stm32f4x7_eth.o(.data)
    .data                                    0x200002ac   Section        8  sockets.o(.data)
    select_cb_list                           0x200002ac   Data           4  sockets.o(.data)
    select_cb_ctr                            0x200002b0   Data           4  sockets.o(.data)
    .data                                    0x200002b4   Section       12  tcpip.o(.data)
    tcpip_init_done                          0x200002b4   Data           4  tcpip.o(.data)
    tcpip_init_done_arg                      0x200002b8   Data           4  tcpip.o(.data)
    mbox                                     0x200002bc   Data           4  tcpip.o(.data)
    .data                                    0x200002c0   Section       10  sys_arch.o(.data)
    counter                                  0x200002c4   Data           2  sys_arch.o(.data)
    counter                                  0x200002c6   Data           2  sys_arch.o(.data)
    counter                                  0x200002c8   Data           2  sys_arch.o(.data)
    .data                                    0x200002cc   Section        9  netif.o(.data)
    netif_num                                0x200002d4   Data           1  netif.o(.data)
    .data                                    0x200002d5   Section        1  pbuf.o(.data)
    .data                                    0x200002d8   Section        4  raw.o(.data)
    raw_pcbs                                 0x200002d8   Data           4  raw.o(.data)
    .data                                    0x200002dc   Section       36  tcp.o(.data)
    tcp_port                                 0x200002dc   Data           2  tcp.o(.data)
    tcp_timer                                0x200002f9   Data           1  tcp.o(.data)
    tcp_timer_ctr                            0x200002fa   Data           1  tcp.o(.data)
    iss                                      0x200002fc   Data           4  tcp.o(.data)
    .data                                    0x20000300   Section       32  tcp_in.o(.data)
    tcphdr                                   0x20000300   Data           4  tcp_in.o(.data)
    iphdr                                    0x20000304   Data           4  tcp_in.o(.data)
    seqno                                    0x20000308   Data           4  tcp_in.o(.data)
    ackno                                    0x2000030c   Data           4  tcp_in.o(.data)
    flags                                    0x20000310   Data           1  tcp_in.o(.data)
    tcplen                                   0x20000312   Data           2  tcp_in.o(.data)
    recv_flags                               0x20000314   Data           1  tcp_in.o(.data)
    recv_data                                0x20000318   Data           4  tcp_in.o(.data)
    .data                                    0x20000320   Section        8  timers.o(.data)
    next_timeout                             0x20000320   Data           4  timers.o(.data)
    tcpip_tcp_timer_active                   0x20000324   Data           4  timers.o(.data)
    .data                                    0x20000328   Section        8  udp.o(.data)
    udp_port                                 0x20000328   Data           2  udp.o(.data)
    .data                                    0x20000330   Section       12  igmp.o(.data)
    igmp_group_list                          0x20000330   Data           4  igmp.o(.data)
    allsystems                               0x20000334   Data           4  igmp.o(.data)
    allrouters                               0x20000338   Data           4  igmp.o(.data)
    .data                                    0x2000033c   Section       18  ip.o(.data)
    ip_id                                    0x2000034c   Data           2  ip.o(.data)
    .data                                    0x2000034e   Section        1  etharp.o(.data)
    etharp_cached_entry                      0x2000034e   Data           1  etharp.o(.data)
    .data                                    0x2000034f   Section       22  udp_connect.o(.data)
    .data                                    0x20000368   Section       36  httpd.o(.data)
    .data                                    0x2000038c   Section       72  httpd_cgi_ssi.o(.data)
    ppcTAGs                                  0x20000394   Data          64  httpd_cgi_ssi.o(.data)
    .bss                                     0x200003d4   Section     3696  application.o(.bss)
    uart_ctl_thread                          0x200003d4   Data         176  application.o(.bss)
    uart_ctl_thread_stack                    0x20000484   Data         512  application.o(.bss)
    uart_upgrade_thread                      0x20000684   Data         176  application.o(.bss)
    uart_upgrade_thread_stack                0x20000734   Data        2048  application.o(.bss)
    antenna_swtich_thread                    0x20000f34   Data         176  application.o(.bss)
    antenna_swtich_thread_stack              0x20000fe4   Data         512  application.o(.bss)
    mb_pool                                  0x2000122c   Data          24  application.o(.bss)
    .bss                                     0x20001244   Section      100  interface.o(.bss)
    spi_device                               0x20001244   Data         100  interface.o(.bss)
    .bss                                     0x200012a8   Section     1041  queue.o(.bss)
    value                                    0x200012a8   Data        1041  queue.o(.bss)
    .bss                                     0x200016bc   Section      100  fpga_upgrade.o(.bss)
    spi_device                               0x200016bc   Data         100  fpga_upgrade.o(.bss)
    .bss                                     0x20001720   Section     1040  upgrade.o(.bss)
    .bss                                     0x20001b30   Section     1301  ymodem.o(.bss)
    packet_data                              0x20001b30   Data        1029  ymodem.o(.bss)
    file_size                                0x20001f35   Data          16  ymodem.o(.bss)
    .bss                                     0x20002048   Section      120  antenna_sw.o(.bss)
    .bss                                     0x200020c0   Section      328  uart_protocol.o(.bss)
    rd_data                                  0x200020c0   Data         100  uart_protocol.o(.bss)
    tx_data                                  0x20002124   Data         100  uart_protocol.o(.bss)
    sem_rx                                   0x20002188   Data          56  uart_protocol.o(.bss)
    sem_queue                                0x200021c0   Data          56  uart_protocol.o(.bss)
    .bss                                     0x20002208   Section      224  stm32f4_eth.o(.bss)
    stm32_eth_device                         0x20002208   Data         168  stm32f4_eth.o(.bss)
    tx_wait                                  0x200022b0   Data          56  stm32f4_eth.o(.bss)
    .bss                                     0x200022e8   Section      228  stm32f4_spi.o(.bss)
    stm32_spi_bus_3                          0x200022e8   Data         228  stm32f4_spi.o(.bss)
    .bss                                     0x200023cc   Section     1216  stm32f4_uart.o(.bss)
    .bss                                     0x20002890   Section     2353  shell.o(.bss)
    finsh_thread                             0x20002890   Data         176  shell.o(.bss)
    finsh_thread_stack                       0x20002940   Data        2048  shell.o(.bss)
    finsh_prompt                             0x20003140   Data         129  shell.o(.bss)
    .bss                                     0x200031c8   Section      432  idle.o(.bss)
    idle                                     0x200031c8   Data         176  idle.o(.bss)
    rt_thread_stack                          0x20003278   Data         256  idle.o(.bss)
    .bss                                     0x20003378   Section      128  kservice.o(.bss)
    rt_log_buf                               0x20003378   Data         128  kservice.o(.bss)
    .bss                                     0x200033f8   Section       56  mem.o(.bss)
    heap_sem                                 0x200033f8   Data          56  mem.o(.bss)
    .bss                                     0x20003430   Section      256  scheduler.o(.bss)
    .bss                                     0x20003530   Section    31132  stm32f4x7_eth.o(.bss)
    .bss                                     0x2000aecc   Section       96  sockets.o(.bss)
    sockets                                  0x2000aecc   Data          96  sockets.o(.bss)
    .bss                                     0x2000af2c   Section       16  tcp_in.o(.bss)
    inseg                                    0x2000af2c   Data          16  tcp_in.o(.bss)
    .bss                                     0x2000af3c   Section       16  ip_addr.o(.bss)
    str                                      0x2000af3c   Data          16  ip_addr.o(.bss)
    .bss                                     0x2000af4c   Section      200  etharp.o(.bss)
    arp_table                                0x2000af4c   Data         200  etharp.o(.bss)
    .bss                                     0x2000b014   Section     4948  ethernetif.o(.bss)
    eth_tx_thread_mb                         0x2000b014   Data          72  ethernetif.o(.bss)
    eth_tx_thread                            0x2000b05c   Data         176  ethernetif.o(.bss)
    eth_tx_thread_mb_pool                    0x2000b10c   Data         128  ethernetif.o(.bss)
    eth_tx_thread_stack                      0x2000b18c   Data        2048  ethernetif.o(.bss)
    eth_rx_thread_mb                         0x2000b98c   Data          72  ethernetif.o(.bss)
    eth_rx_thread                            0x2000b9d4   Data         176  ethernetif.o(.bss)
    eth_rx_thread_mb_pool                    0x2000ba84   Data         128  ethernetif.o(.bss)
    eth_rx_thread_stack                      0x2000bb04   Data        2048  ethernetif.o(.bss)
    .bss                                     0x2000c368   Section     5976  udp_connect.o(.bss)
    udp_fc_thread                            0x2000c620   Data         176  udp_connect.o(.bss)
    udp_fc_thread_stack                      0x2000c6d0   Data        1024  udp_connect.o(.bss)
    udp_ground_thread                        0x2000cad0   Data         176  udp_connect.o(.bss)
    udp_ground_thread_stack                  0x2000cb80   Data        1024  udp_connect.o(.bss)
    udp_rcvcgi_thread                        0x2000cf80   Data         176  udp_connect.o(.bss)
    udp_recvcgi_thread_stack                 0x2000d030   Data         512  udp_connect.o(.bss)
    udp_linkhub_thread                       0x2000d230   Data         176  udp_connect.o(.bss)
    udp_linkhub_thread_stack                 0x2000d2e0   Data         512  udp_connect.o(.bss)
    m_mavlink_status                         0x2000d5bc   Data          96  udp_connect.o(.bss)
    m_mavlink_buffer                         0x2000d620   Data        1184  udp_connect.o(.bss)
    .bss                                     0x2000dac0   Section     1024  httpd.o(.bss)
    httpd_req_buf                            0x2000dac0   Data        1024  httpd.o(.bss)
    .bss                                     0x2000dec0   Section      240  fs.o(.bss)
    .bss                                     0x2000dfb0   Section       96  libspace.o(.bss)
    HEAP                                     0x2000e010   Section      512  startup_stm32f40xx.o(HEAP)
    Heap_Mem                                 0x2000e010   Data         512  startup_stm32f40xx.o(HEAP)
    STACK                                    0x2000e210   Section     1024  startup_stm32f40xx.o(STACK)
    Stack_Mem                                0x2000e210   Data        1024  startup_stm32f40xx.o(STACK)
    __initial_sp                             0x2000e610   Data           0  startup_stm32f40xx.o(STACK)

    Global Symbols

    Symbol Name                              Value     Ov Type        Size  Object(Section)

    BuildAttributes$$THM_ISAv4$E$P$D$K$B$S$7EM$VFPi3$EXTD16$VFPS$VFMA$PE$A:L22UL41UL21$X:L11$S22US41US21$IEEE1$IW$USESV6$~STKCKD$USESV7$~SHL$OTIME$ROPI$IEEEX$EBA8$UX$STANDARDLIB$REQ8$PRES8$EABIv2 0x00000000   Number         0  anon$$obj.o ABSOLUTE
    __ARM_use_no_argv                        0x00000000   Number         0  startup.o ABSOLUTE
    __ARM_exceptions_init                     - Undefined Weak Reference
    __alloca_initialize                       - Undefined Weak Reference
    __arm_preinit_                            - Undefined Weak Reference
    __cpp_initialize__aeabi_                  - Undefined Weak Reference
    __cxa_finalize                            - Undefined Weak Reference
    __sigvec_lookup                           - Undefined Weak Reference
    _atexit_init                              - Undefined Weak Reference
    _call_atexit_fns                          - Undefined Weak Reference
    _clock_init                               - Undefined Weak Reference
    _fp_trap_init                             - Undefined Weak Reference
    _fp_trap_shutdown                         - Undefined Weak Reference
    _get_lc_collate                           - Undefined Weak Reference
    _get_lc_ctype                             - Undefined Weak Reference
    _get_lc_monetary                          - Undefined Weak Reference
    _get_lc_time                              - Undefined Weak Reference
    _getenv_init                              - Undefined Weak Reference
    _handle_redirection                       - Undefined Weak Reference
    _init_alloc                               - Undefined Weak Reference
    _init_user_alloc                          - Undefined Weak Reference
    _initio                                   - Undefined Weak Reference
    _mutex_acquire                            - Undefined Weak Reference
    _mutex_release                            - Undefined Weak Reference
    _printf_post_padding                      - Undefined Weak Reference
    _printf_pre_padding                       - Undefined Weak Reference
    _printf_truncate_signed                   - Undefined Weak Reference
    _printf_truncate_unsigned                 - Undefined Weak Reference
    _rand_init                                - Undefined Weak Reference
    _signal_finish                            - Undefined Weak Reference
    _signal_init                              - Undefined Weak Reference
    _terminate_alloc                          - Undefined Weak Reference
    _terminate_user_alloc                     - Undefined Weak Reference
    _terminateio                              - Undefined Weak Reference
    __Vectors_Size                           0x00000188   Number         0  startup_stm32f40xx.o ABSOLUTE
    __Vectors                                0x08000000   Data           4  startup_stm32f40xx.o(RESET)
    __Vectors_End                            0x08000188   Data           0  startup_stm32f40xx.o(RESET)
    __main                                   0x08000189   Thumb Code     8  __main.o(!!!main)
    __scatterload                            0x08000191   Thumb Code     0  __scatter.o(!!!scatter)
    __scatterload_rt2                        0x08000191   Thumb Code    44  __scatter.o(!!!scatter)
    __scatterload_rt2_thumb_only             0x08000191   Thumb Code     0  __scatter.o(!!!scatter)
    __scatterload_null                       0x0800019f   Thumb Code     0  __scatter.o(!!!scatter)
    __decompress                             0x080001c5   Thumb Code    90  __dczerorl2.o(!!dczerorl2)
    __decompress1                            0x080001c5   Thumb Code     0  __dczerorl2.o(!!dczerorl2)
    __scatterload_zeroinit                   0x08000221   Thumb Code    28  __scatter_zi.o(!!handler_zi)
    _printf_f                                0x0800023d   Thumb Code     0  _printf_f.o(.ARM.Collect$$_printf_percent$$00000003)
    _printf_percent                          0x0800023d   Thumb Code     0  _printf_percent.o(.ARM.Collect$$_printf_percent$$00000000)
    _printf_d                                0x08000243   Thumb Code     0  _printf_d.o(.ARM.Collect$$_printf_percent$$00000009)
    _printf_percent_end                      0x08000249   Thumb Code     0  _printf_percent_end.o(.ARM.Collect$$_printf_percent$$00000017)
    __rt_lib_init                            0x0800024d   Thumb Code     0  libinit.o(.ARM.Collect$$libinit$$00000000)
    __rt_lib_init_fp_1                       0x0800024f   Thumb Code     0  libinit2.o(.ARM.Collect$$libinit$$00000001)
    __rt_lib_init_heap_1                     0x08000253   Thumb Code     0  libinit2.o(.ARM.Collect$$libinit$$0000000A)
    __rt_lib_init_lc_common                  0x08000253   Thumb Code     0  libinit2.o(.ARM.Collect$$libinit$$0000000F)
    __rt_lib_init_preinit_1                  0x08000253   Thumb Code     0  libinit2.o(.ARM.Collect$$libinit$$00000004)
    __rt_lib_init_rand_1                     0x08000253   Thumb Code     0  libinit2.o(.ARM.Collect$$libinit$$0000000E)
    __rt_lib_init_user_alloc_1               0x08000253   Thumb Code     0  libinit2.o(.ARM.Collect$$libinit$$0000000C)
    __rt_lib_init_lc_collate_1               0x08000259   Thumb Code     0  libinit2.o(.ARM.Collect$$libinit$$00000011)
    __rt_lib_init_lc_ctype_1                 0x08000259   Thumb Code     0  libinit2.o(.ARM.Collect$$libinit$$00000013)
    __rt_lib_init_lc_monetary_1              0x08000259   Thumb Code     0  libinit2.o(.ARM.Collect$$libinit$$00000015)
    __rt_lib_init_lc_numeric_2               0x08000259   Thumb Code     0  libinit2.o(.ARM.Collect$$libinit$$00000016)
    __rt_lib_init_alloca_1                   0x08000263   Thumb Code     0  libinit2.o(.ARM.Collect$$libinit$$0000002E)
    __rt_lib_init_argv_1                     0x08000263   Thumb Code     0  libinit2.o(.ARM.Collect$$libinit$$0000002C)
    __rt_lib_init_atexit_1                   0x08000263   Thumb Code     0  libinit2.o(.ARM.Collect$$libinit$$0000001B)
    __rt_lib_init_clock_1                    0x08000263   Thumb Code     0  libinit2.o(.ARM.Collect$$libinit$$00000021)
    __rt_lib_init_cpp_1                      0x08000263   Thumb Code     0  libinit2.o(.ARM.Collect$$libinit$$00000032)
    __rt_lib_init_exceptions_1               0x08000263   Thumb Code     0  libinit2.o(.ARM.Collect$$libinit$$00000030)
    __rt_lib_init_fp_trap_1                  0x08000263   Thumb Code     0  libinit2.o(.ARM.Collect$$libinit$$0000001F)
    __rt_lib_init_getenv_1                   0x08000263   Thumb Code     0  libinit2.o(.ARM.Collect$$libinit$$00000023)
    __rt_lib_init_lc_numeric_1               0x08000263   Thumb Code     0  libinit2.o(.ARM.Collect$$libinit$$00000017)
    __rt_lib_init_lc_time_1                  0x08000263   Thumb Code     0  libinit2.o(.ARM.Collect$$libinit$$00000019)
    __rt_lib_init_return                     0x08000263   Thumb Code     0  libinit2.o(.ARM.Collect$$libinit$$00000033)
    __rt_lib_init_signal_1                   0x08000263   Thumb Code     0  libinit2.o(.ARM.Collect$$libinit$$0000001D)
    __rt_lib_init_stdio_1                    0x08000263   Thumb Code     0  libinit2.o(.ARM.Collect$$libinit$$00000025)
    __rt_lib_shutdown                        0x08000265   Thumb Code     0  libshutdown.o(.ARM.Collect$$libshutdown$$00000000)
    __rt_lib_shutdown_fp_trap_1              0x08000267   Thumb Code     0  libshutdown2.o(.ARM.Collect$$libshutdown$$00000006)
    __rt_lib_shutdown_heap_1                 0x08000267   Thumb Code     0  libshutdown2.o(.ARM.Collect$$libshutdown$$0000000E)
    __rt_lib_shutdown_return                 0x08000267   Thumb Code     0  libshutdown2.o(.ARM.Collect$$libshutdown$$0000000F)
    __rt_lib_shutdown_signal_1               0x08000267   Thumb Code     0  libshutdown2.o(.ARM.Collect$$libshutdown$$00000009)
    __rt_lib_shutdown_stdio_1                0x08000267   Thumb Code     0  libshutdown2.o(.ARM.Collect$$libshutdown$$00000003)
    __rt_lib_shutdown_user_alloc_1           0x08000267   Thumb Code     0  libshutdown2.o(.ARM.Collect$$libshutdown$$0000000B)
    __rt_entry                               0x08000269   Thumb Code     0  __rtentry.o(.ARM.Collect$$rtentry$$00000000)
    __rt_entry_presh_1                       0x08000269   Thumb Code     0  __rtentry2.o(.ARM.Collect$$rtentry$$00000002)
    __rt_entry_sh                            0x08000269   Thumb Code     0  __rtentry4.o(.ARM.Collect$$rtentry$$00000004)
    __rt_entry_li                            0x0800026f   Thumb Code     0  __rtentry2.o(.ARM.Collect$$rtentry$$0000000A)
    __rt_entry_postsh_1                      0x0800026f   Thumb Code     0  __rtentry2.o(.ARM.Collect$$rtentry$$00000009)
    __rt_entry_main                          0x08000273   Thumb Code     0  __rtentry2.o(.ARM.Collect$$rtentry$$0000000D)
    __rt_entry_postli_1                      0x08000273   Thumb Code     0  __rtentry2.o(.ARM.Collect$$rtentry$$0000000C)
    __rt_exit                                0x0800027b   Thumb Code     0  rtexit.o(.ARM.Collect$$rtexit$$00000000)
    __rt_exit_ls                             0x0800027d   Thumb Code     0  rtexit2.o(.ARM.Collect$$rtexit$$00000003)
    __rt_exit_prels_1                        0x0800027d   Thumb Code     0  rtexit2.o(.ARM.Collect$$rtexit$$00000002)
    __rt_exit_exit                           0x08000281   Thumb Code     0  rtexit2.o(.ARM.Collect$$rtexit$$00000004)
    assert_failed                            0x08000289   Thumb Code    30  startup.o(.text)
    rtthread_startup                         0x080002a7   Thumb Code    98  startup.o(.text)
    main                                     0x08000309   Thumb Code    14  startup.o(.text)
    init_thread_entry                        0x0800041d   Thumb Code   310  application.o(.text)
    rt_application_init                      0x08000553   Thumb Code    38  application.o(.text)
    Int2Str                                  0x080006dd   Thumb Code    84  common.o(.text)
    Str2Int                                  0x08000731   Thumb Code   260  common.o(.text)
    if_bus_init                              0x08000839   Thumb Code   138  interface.o(.text)
    if_set_freq                              0x080008c3   Thumb Code    24  interface.o(.text)
    if_set_rf_power                          0x080008db   Thumb Code    20  interface.o(.text)
    if_set_downlink                          0x080008ef   Thumb Code    24  interface.o(.text)
    if_get_dev_status                        0x08000907   Thumb Code    22  interface.o(.text)
    mcu_erase                                0x0800091d   Thumb Code    20  interface.o(.text)
    mcu_upgrade                              0x08000931   Thumb Code    32  interface.o(.text)
    if_mcu_erase                             0x08000951   Thumb Code     8  interface.o(.text)
    if_mcu_upgrade                           0x08000959   Thumb Code    32  interface.o(.text)
    MCU1_upgrade_enable                      0x08000979   Thumb Code    32  interface.o(.text)
    if_set_antenna_sw                        0x08000999   Thumb Code    20  interface.o(.text)
    MCU1_reset                               0x080009ad   Thumb Code    96  interface.o(.text)
    InitQueue                                0x08000a5d   Thumb Code    18  queue.o(.text)
    EnQueue                                  0x08000a6f   Thumb Code    64  queue.o(.text)
    DeQueue                                  0x08000aaf   Thumb Code    54  queue.o(.text)
    IsQueueEmpty                             0x08000ae5   Thumb Code    18  queue.o(.text)
    IsQueueFull                              0x08000af7   Thumb Code    30  queue.o(.text)
    fpag_flash_init                          0x08000b5d   Thumb Code   140  fpga_upgrade.o(.text)
    fpga_erase                               0x08000be9   Thumb Code    24  fpga_upgrade.o(.text)
    fpga_upgrade                             0x08000c01   Thumb Code    38  fpga_upgrade.o(.text)
    if_fpga_erase                            0x08000c27   Thumb Code     8  fpga_upgrade.o(.text)
    if_fpga_upgrade                          0x08000c2f   Thumb Code    32  fpga_upgrade.o(.text)
    mcu_flash_wait_ready                     0x08000cbd   Thumb Code    80  mcu_api.o(.text)
    mcu_flash_write                          0x08000d0d   Thumb Code   174  mcu_api.o(.text)
    mcu_flash_erase                          0x08000dbb   Thumb Code   188  mcu_api.o(.text)
    mcu_set_vga                              0x08000e77   Thumb Code    68  mcu_api.o(.text)
    mcu_set_freq                             0x08000ebb   Thumb Code    74  mcu_api.o(.text)
    mcu_set_mode                             0x08000f05   Thumb Code    58  mcu_api.o(.text)
    mcu_antenna_sw                           0x08000f3f   Thumb Code    56  mcu_api.o(.text)
    mcu_get_status                           0x08000f77   Thumb Code    58  mcu_api.o(.text)
    spansion_erase                           0x08001281   Thumb Code   210  spansion.o(.text)
    spi_flash_probe_spansion                 0x08001353   Thumb Code   148  spansion.o(.text)
    spi_flash_cmd                            0x080015ad   Thumb Code    32  spi_flash.o(.text)
    spi_flash_cmd_read                       0x080015cd   Thumb Code    40  spi_flash.o(.text)
    spi_flash_cmd_write                      0x080015f5   Thumb Code    40  spi_flash.o(.text)
    spi_flash_read_common                    0x0800161d   Thumb Code    44  spi_flash.o(.text)
    spi_flash_probe                          0x08001649   Thumb Code   170  spi_flash.o(.text)
    spi_flash_free                           0x080016f3   Thumb Code    12  spi_flash.o(.text)
    uart_upgrade_thread_task                 0x08001759   Thumb Code    56  upgrade.o(.text)
    Ymodem_Receive                           0x080018bb   Thumb Code   452  ymodem.o(.text)
    Ymodem_CheckResponse                     0x08001a7f   Thumb Code     6  ymodem.o(.text)
    Ymodem_PrepareIntialPacket               0x08001a85   Thumb Code   114  ymodem.o(.text)
    Ymodem_PreparePacket                     0x08001af7   Thumb Code   140  ymodem.o(.text)
    UpdateCRC16                              0x08001b83   Thumb Code    50  ymodem.o(.text)
    Cal_CRC16                                0x08001bb5   Thumb Code    52  ymodem.o(.text)
    CalChecksum                              0x08001be9   Thumb Code    24  ymodem.o(.text)
    Ymodem_SendPacket                        0x08001c01   Thumb Code    26  ymodem.o(.text)
    Ymodem_Transmit                          0x08001c1b   Thumb Code   730  ymodem.o(.text)
    antenna_swtich_task                      0x08001ef9   Thumb Code   434  antenna_sw.o(.text)
    write_data_opt                           0x080020cd   Thumb Code    54  uart_protocol.o(.text)
    write_cmd_wait                           0x08002103   Thumb Code    24  uart_protocol.o(.text)
    Receive_Byte                             0x0800211b   Thumb Code    68  uart_protocol.o(.text)
    Send_Byte                                0x0800215f   Thumb Code    20  uart_protocol.o(.text)
    check_sum                                0x08002173   Thumb Code    32  uart_protocol.o(.text)
    uart_ctl_init                            0x080021a3   Thumb Code    86  uart_protocol.o(.text)
    uart_ctl_thread_task                     0x0800223b   Thumb Code  1982  uart_protocol.o(.text)
    NVIC_Configuration                       0x080029f9   Thumb Code    22  board.o(.text)
    SysTick_Configuration                    0x08002a0f   Thumb Code    98  board.o(.text)
    SysTick_Handler                          0x08002a71   Thumb Code    16  board.o(.text)
    Switch_reset                             0x08002a81   Thumb Code    76  board.o(.text)
    PHY_reset                                0x08002acd   Thumb Code   112  board.o(.text)
    get_fpga_config_status                   0x08002b3d   Thumb Code    54  board.o(.text)
    rt_hw_board_init                         0x08002b73   Thumb Code    22  board.o(.text)
    rt_stm32_eth_tx                          0x08002c75   Thumb Code    92  stm32f4_eth.o(.text)
    rt_stm32_eth_rx                          0x08002cd1   Thumb Code   178  stm32f4_eth.o(.text)
    rt_hw_stm32_eth_init                     0x0800304b   Thumb Code   126  stm32f4_eth.o(.text)
    ETH_IRQHandler                           0x080030c9   Thumb Code    62  stm32f4_eth.o(.text)
    NMI_Handler                              0x0800317d   Thumb Code     2  stm32f4_it.o(.text)
    MemManage_Handler                        0x0800317f   Thumb Code     4  stm32f4_it.o(.text)
    BusFault_Handler                         0x08003183   Thumb Code     4  stm32f4_it.o(.text)
    UsageFault_Handler                       0x08003187   Thumb Code     4  stm32f4_it.o(.text)
    SVC_Handler                              0x0800318b   Thumb Code     2  stm32f4_it.o(.text)
    DebugMon_Handler                         0x0800318d   Thumb Code     2  stm32f4_it.o(.text)
    rt_hw_spi_init                           0x08003645   Thumb Code    78  stm32f4_spi.o(.text)
    _sys_exit                                0x080036b9   Thumb Code     4  stm32f4_uart.o(.text)
    fputc                                    0x080036bd   Thumb Code    22  stm32f4_uart.o(.text)
    rt_hw_usart_init                         0x080037a1   Thumb Code   148  stm32f4_uart.o(.text)
    USART1_IRQHandler                        0x08003835   Thumb Code    18  stm32f4_uart.o(.text)
    USART2_IRQHandler                        0x08003847   Thumb Code    18  stm32f4_uart.o(.text)
    TIM3_Int_Init                            0x08003889   Thumb Code    88  timer.o(.text)
    TIM3_IRQHandler                          0x080038e1   Thumb Code    42  timer.o(.text)
    rt_hw_serial_register                    0x08003cbb   Thumb Code   306  serial.o(.text)
    rt_hw_serial_isr                         0x08003ded   Thumb Code   248  serial.o(.text)
    rt_hw_serial_dma_tx_isr                  0x08003ee5   Thumb Code   136  serial.o(.text)
    rt_hw_serial_dma_rx_isr                  0x08003f6d   Thumb Code   166  serial.o(.text)
    rt_spi_send_then_recv                    0x080040b1   Thumb Code   248  spi_bus.o(.text)
    rt_spi_send_then_send                    0x080041a9   Thumb Code   248  spi_bus.o(.text)
    rt_spi_transfer                          0x080042a1   Thumb Code   200  spi_bus.o(.text)
    rt_spi_configure                         0x08004369   Thumb Code   100  spi_bus.o(.text)
    rt_spi_device_register                   0x080044e9   Thumb Code    62  spi_bus.o(.text)
    rt_spi_bus_attach_device                 0x08004527   Thumb Code    76  spi_bus.o(.text)
    rt_spi_bus_register                      0x08004573   Thumb Code    82  spi_bus.o(.text)
    hello                                    0x08004601   Thumb Code    12  cmd.o(.text)
    version                                  0x0800460d   Thumb Code    10  cmd.o(.text)
    list_thread                              0x080046c5   Thumb Code    10  cmd.o(.text)
    list_sem                                 0x08004763   Thumb Code    12  cmd.o(.text)
    list_event                               0x080047cf   Thumb Code    12  cmd.o(.text)
    list_mutex                               0x0800481f   Thumb Code    12  cmd.o(.text)
    list_mailbox                             0x080048a3   Thumb Code    12  cmd.o(.text)
    list_msgqueue                            0x0800491b   Thumb Code    12  cmd.o(.text)
    list_mempool                             0x0800498d   Thumb Code    12  cmd.o(.text)
    list_timer                               0x08004dd1   Thumb Code    10  cmd.o(.text)
    list_device                              0x08004e33   Thumb Code    12  cmd.o(.text)
    list                                     0x08004e3f   Thumb Code    54  cmd.o(.text)
    get_hex                                  0x08004e75   Thumb Code   122  cmd.o(.text)
    cmd_phy_bd                               0x08004eef   Thumb Code   102  cmd.o(.text)
    cmd_fc_100m                              0x08004f55   Thumb Code    76  cmd.o(.text)
    cmd_ifconfig                             0x08004fa1   Thumb Code    14  cmd.o(.text)
    cmd_rd_phy                               0x08004faf   Thumb Code    68  cmd.o(.text)
    cmd_wr_phy                               0x08004ff3   Thumb Code    78  cmd.o(.text)
    msh_is_used                              0x0800517d   Thumb Code     4  msh.o(.text)
    msh_help                                 0x08005181   Thumb Code    66  msh.o(.text)
    msh_exec                                 0x08005331   Thumb Code    82  msh.o(.text)
    msh_auto_complete                        0x080053a3   Thumb Code   138  msh.o(.text)
    finsh_get_prompt                         0x08005491   Thumb Code    38  shell.o(.text)
    finsh_set_device                         0x080054d9   Thumb Code   156  shell.o(.text)
    finsh_get_device                         0x08005575   Thumb Code    28  shell.o(.text)
    finsh_set_echo                           0x08005591   Thumb Code    30  shell.o(.text)
    finsh_get_echo                           0x080055af   Thumb Code    32  shell.o(.text)
    finsh_thread_entry                       0x080056bb   Thumb Code  1568  shell.o(.text)
    finsh_system_function_init               0x08005cdb   Thumb Code    10  shell.o(.text)
    finsh_system_var_init                    0x08005ce5   Thumb Code    10  shell.o(.text)
    finsh_system_init                        0x08005cef   Thumb Code   194  shell.o(.text)
    rt_system_tick_init                      0x08005dcd   Thumb Code     2  clock.o(.text)
    rt_tick_get                              0x08005dcf   Thumb Code     6  clock.o(.text)
    rt_tick_set                              0x08005dd5   Thumb Code    22  clock.o(.text)
    rt_tick_increase                         0x08005deb   Thumb Code    42  clock.o(.text)
    rt_tick_from_millisecond                 0x08005e15   Thumb Code    20  clock.o(.text)
    rt_device_find                           0x08005e2d   Thumb Code    76  device.o(.text)
    rt_device_register                       0x08005e79   Thumb Code    54  device.o(.text)
    rt_device_unregister                     0x08005eaf   Thumb Code    26  device.o(.text)
    rt_device_init_all                       0x08005ec9   Thumb Code     4  device.o(.text)
    rt_device_init                           0x08005ecd   Thumb Code    66  device.o(.text)
    rt_device_open                           0x08005f0f   Thumb Code   146  device.o(.text)
    rt_device_close                          0x08005fa1   Thumb Code    74  device.o(.text)
    rt_device_read                           0x08005feb   Thumb Code    78  device.o(.text)
    rt_device_write                          0x08006039   Thumb Code    78  device.o(.text)
    rt_device_control                        0x08006087   Thumb Code    42  device.o(.text)
    rt_device_set_rx_indicate                0x080060b1   Thumb Code    26  device.o(.text)
    rt_device_set_tx_complete                0x080060cb   Thumb Code    26  device.o(.text)
    rt_thread_idle_excute                    0x08006169   Thumb Code   158  idle.o(.text)
    rt_thread_idle_init                      0x0800620f   Thumb Code    38  idle.o(.text)
    rt_sem_init                              0x08006335   Thumb Code    52  ipc.o(.text)
    rt_sem_detach                            0x08006369   Thumb Code    34  ipc.o(.text)
    rt_sem_create                            0x0800638b   Thumb Code    86  ipc.o(.text)
    rt_sem_delete                            0x080063e1   Thumb Code    78  ipc.o(.text)
    rt_sem_take                              0x0800642f   Thumb Code   232  ipc.o(.text)
    rt_sem_trytake                           0x08006517   Thumb Code    14  ipc.o(.text)
    rt_sem_release                           0x08006525   Thumb Code    62  ipc.o(.text)
    rt_sem_control                           0x08006563   Thumb Code    68  ipc.o(.text)
    rt_mutex_init                            0x080065a7   Thumb Code    64  ipc.o(.text)
    rt_mutex_detach                          0x080065e7   Thumb Code    36  ipc.o(.text)
    rt_mutex_create                          0x0800660b   Thumb Code   102  ipc.o(.text)
    rt_mutex_delete                          0x08006671   Thumb Code    78  ipc.o(.text)
    rt_mutex_take                            0x080066bf   Thumb Code   484  ipc.o(.text)
    rt_mutex_release                         0x080068a3   Thumb Code   268  ipc.o(.text)
    rt_mutex_control                         0x080069af   Thumb Code     8  ipc.o(.text)
    rt_event_init                            0x080069b7   Thumb Code    48  ipc.o(.text)
    rt_event_detach                          0x080069e7   Thumb Code    36  ipc.o(.text)
    rt_event_create                          0x08006a0b   Thumb Code    90  ipc.o(.text)
    rt_event_delete                          0x08006a65   Thumb Code    82  ipc.o(.text)
    rt_event_send                            0x08006ab7   Thumb Code   192  ipc.o(.text)
    rt_event_recv                            0x08006b77   Thumb Code   398  ipc.o(.text)
    rt_event_control                         0x08006d05   Thumb Code    70  ipc.o(.text)
    rt_mb_init                               0x08006d4b   Thumb Code    76  ipc.o(.text)
    rt_mb_detach                             0x08006d97   Thumb Code    44  ipc.o(.text)
    rt_mb_create                             0x08006dc3   Thumb Code   130  ipc.o(.text)
    rt_mb_delete                             0x08006e45   Thumb Code    96  ipc.o(.text)
    rt_mb_send_wait                          0x08006ea5   Thumb Code   358  ipc.o(.text)
    rt_mb_send                               0x0800700b   Thumb Code    18  ipc.o(.text)
    rt_mb_recv                               0x0800701d   Thumb Code   402  ipc.o(.text)
    rt_mb_control                            0x080071af   Thumb Code    82  ipc.o(.text)
    rt_mq_init                               0x08007201   Thumb Code   118  ipc.o(.text)
    rt_mq_detach                             0x08007277   Thumb Code    36  ipc.o(.text)
    rt_mq_delete                             0x0800729b   Thumb Code    88  ipc.o(.text)
    rt_mq_create                             0x080072f3   Thumb Code   174  ipc.o(.text)
    rt_mq_send                               0x080073a1   Thumb Code   182  ipc.o(.text)
    rt_mq_urgent                             0x08007457   Thumb Code   174  ipc.o(.text)
    rt_mq_recv                               0x08007505   Thumb Code   478  ipc.o(.text)
    rt_mq_control                            0x080076e3   Thumb Code    98  ipc.o(.text)
    rt_interrupt_enter                       0x08007789   Thumb Code    30  irq.o(.text)
    rt_interrupt_leave                       0x080077a7   Thumb Code    30  irq.o(.text)
    rt_interrupt_get_nest                    0x080077c5   Thumb Code     6  irq.o(.text)
    rt_get_errno                             0x080077d1   Thumb Code    32  kservice.o(.text)
    rt_set_errno                             0x080077f1   Thumb Code    36  kservice.o(.text)
    _rt_errno                                0x08007815   Thumb Code    30  kservice.o(.text)
    rt_memset                                0x08007833   Thumb Code    72  kservice.o(.text)
    rt_memcpy                                0x0800787b   Thumb Code   124  kservice.o(.text)
    rt_memmove                               0x080078f7   Thumb Code    66  kservice.o(.text)
    rt_memcmp                                0x08007939   Thumb Code    38  kservice.o(.text)
    rt_strlen                                0x0800795f   Thumb Code    18  kservice.o(.text)
    rt_strstr                                0x08007971   Thumb Code    58  kservice.o(.text)
    rt_strcasecmp                            0x080079ab   Thumb Code    48  kservice.o(.text)
    rt_strncpy                               0x080079db   Thumb Code    52  kservice.o(.text)
    rt_strncmp                               0x08007a0f   Thumb Code    40  kservice.o(.text)
    rt_strcmp                                0x08007a37   Thumb Code    28  kservice.o(.text)
    rt_strdup                                0x08007a53   Thumb Code    40  kservice.o(.text)
    rt_hw_console_output                     0x08007a7b   Thumb Code     2  kservice.o(.text)
    rt_vsnprintf                             0x08007c33   Thumb Code   800  kservice.o(.text)
    rt_kprintf                               0x08007f53   Thumb Code    96  kservice.o(.text)
    rt_show_version                          0x08007fb3   Thumb Code    38  kservice.o(.text)
    rt_snprintf                              0x08007fd9   Thumb Code    38  kservice.o(.text)
    rt_vsprintf                              0x08007fff   Thumb Code    22  kservice.o(.text)
    rt_sprintf                               0x08008015   Thumb Code    34  kservice.o(.text)
    rt_console_get_device                    0x08008037   Thumb Code     6  kservice.o(.text)
    rt_console_set_device                    0x0800803d   Thumb Code    48  kservice.o(.text)
    rt_malloc_align                          0x0800806d   Thumb Code    66  kservice.o(.text)
    rt_free_align                            0x080080af   Thumb Code    16  kservice.o(.text)
    __rt_ffs                                 0x080080bf   Thumb Code    70  kservice.o(.text)
    rt_assert_set_hook                       0x08008105   Thumb Code     6  kservice.o(.text)
    rt_assert_handler                        0x0800810b   Thumb Code    56  kservice.o(.text)
    rt_system_heap_init                      0x080082bd   Thumb Code   204  mem.o(.text)
    rt_malloc                                0x08008389   Thumb Code   498  mem.o(.text)
    rt_free                                  0x0800857b   Thumb Code   628  mem.o(.text)
    rt_realloc                               0x080087ef   Thumb Code   312  mem.o(.text)
    rt_calloc                                0x08008927   Thumb Code    84  mem.o(.text)
    rt_memory_info                           0x0800897b   Thumb Code    26  mem.o(.text)
    list_mem                                 0x08008995   Thumb Code    34  mem.o(.text)
    rt_mp_init                               0x08008a51   Thumb Code   128  mempool.o(.text)
    rt_mp_detach                             0x08008ad1   Thumb Code    76  mempool.o(.text)
    rt_mp_create                             0x08008b1d   Thumb Code   174  mempool.o(.text)
    rt_mp_delete                             0x08008bcb   Thumb Code   130  mempool.o(.text)
    rt_mp_alloc                              0x08008c4d   Thumb Code   258  mempool.o(.text)
    rt_mp_free                               0x08008d4f   Thumb Code    78  mempool.o(.text)
    rt_system_object_init                    0x08008e39   Thumb Code     2  object.o(.text)
    rt_object_get_information                0x08008e3b   Thumb Code    10  object.o(.text)
    rt_object_init                           0x08008e45   Thumb Code    60  object.o(.text)
    rt_object_detach                         0x08008e81   Thumb Code    38  object.o(.text)
    rt_object_allocate                       0x08008ea7   Thumb Code   118  object.o(.text)
    rt_object_delete                         0x08008f1d   Thumb Code    68  object.o(.text)
    rt_object_is_systemobject                0x08008f61   Thumb Code    36  object.o(.text)
    rt_object_find                           0x08008f85   Thumb Code   126  object.o(.text)
    rt_system_scheduler_init                 0x08009085   Thumb Code    56  scheduler.o(.text)
    rt_system_scheduler_start                0x080090bd   Thumb Code    36  scheduler.o(.text)
    rt_schedule                              0x080090e1   Thumb Code   106  scheduler.o(.text)
    rt_schedule_insert_thread                0x0800914b   Thumb Code    82  scheduler.o(.text)
    rt_schedule_remove_thread                0x0800919d   Thumb Code    94  scheduler.o(.text)
    rt_enter_critical                        0x080091fb   Thumb Code    28  scheduler.o(.text)
    rt_exit_critical                         0x08009217   Thumb Code    54  scheduler.o(.text)
    rt_critical_level                        0x0800924d   Thumb Code     8  scheduler.o(.text)
    rt_thread_exit                           0x080092b5   Thumb Code    78  thread.o(.text)
    rt_thread_timeout                        0x08009303   Thumb Code    66  thread.o(.text)
    rt_thread_init                           0x080093d5   Thumb Code    74  thread.o(.text)
    rt_thread_self                           0x0800941f   Thumb Code     6  thread.o(.text)
    rt_thread_resume                         0x08009425   Thumb Code    78  thread.o(.text)
    rt_thread_startup                        0x08009473   Thumb Code    80  thread.o(.text)
    rt_thread_detach                         0x080094c3   Thumb Code    74  thread.o(.text)
    rt_thread_create                         0x0800950d   Thumb Code    80  thread.o(.text)
    rt_thread_delete                         0x0800955d   Thumb Code    64  thread.o(.text)
    rt_thread_yield                          0x0800959d   Thumb Code    88  thread.o(.text)
    rt_thread_suspend                        0x080095f5   Thumb Code    76  thread.o(.text)
    rt_thread_sleep                          0x08009641   Thumb Code    76  thread.o(.text)
    rt_thread_delay                          0x0800968d   Thumb Code   208  thread.o(.text)
    rt_thread_control                        0x0800975d   Thumb Code   130  thread.o(.text)
    rt_thread_find                           0x080097df   Thumb Code    76  thread.o(.text)
    rt_timer_init                            0x080098d3   Thumb Code    58  timer_1.o(.text)
    rt_timer_detach                          0x0800990d   Thumb Code    44  timer_1.o(.text)
    rt_timer_create                          0x08009939   Thumb Code    54  timer_1.o(.text)
    rt_timer_delete                          0x0800996f   Thumb Code    46  timer_1.o(.text)
    rt_timer_start                           0x0800999d   Thumb Code   282  timer_1.o(.text)
    rt_timer_stop                            0x08009ab7   Thumb Code    68  timer_1.o(.text)
    rt_timer_control                         0x08009afb   Thumb Code    84  timer_1.o(.text)
    rt_timer_check                           0x08009b4f   Thumb Code   142  timer_1.o(.text)
    rt_timer_next_timeout_tick               0x08009bdd   Thumb Code    10  timer_1.o(.text)
    rt_system_timer_init                     0x08009be7   Thumb Code    24  timer_1.o(.text)
    rt_system_timer_thread_init              0x08009bff   Thumb Code     2  timer_1.o(.text)
    Reset_Handler                            0x08009c71   Thumb Code     8  startup_stm32f40xx.o(.text)
    ADC_IRQHandler                           0x08009c8b   Thumb Code     0  startup_stm32f40xx.o(.text)
    CAN1_RX0_IRQHandler                      0x08009c8b   Thumb Code     0  startup_stm32f40xx.o(.text)
    CAN1_RX1_IRQHandler                      0x08009c8b   Thumb Code     0  startup_stm32f40xx.o(.text)
    CAN1_SCE_IRQHandler                      0x08009c8b   Thumb Code     0  startup_stm32f40xx.o(.text)
    CAN1_TX_IRQHandler                       0x08009c8b   Thumb Code     0  startup_stm32f40xx.o(.text)
    CAN2_RX0_IRQHandler                      0x08009c8b   Thumb Code     0  startup_stm32f40xx.o(.text)
    CAN2_RX1_IRQHandler                      0x08009c8b   Thumb Code     0  startup_stm32f40xx.o(.text)
    CAN2_SCE_IRQHandler                      0x08009c8b   Thumb Code     0  startup_stm32f40xx.o(.text)
    CAN2_TX_IRQHandler                       0x08009c8b   Thumb Code     0  startup_stm32f40xx.o(.text)
    CRYP_IRQHandler                          0x08009c8b   Thumb Code     0  startup_stm32f40xx.o(.text)
    DCMI_IRQHandler                          0x08009c8b   Thumb Code     0  startup_stm32f40xx.o(.text)
    DMA1_Stream0_IRQHandler                  0x08009c8b   Thumb Code     0  startup_stm32f40xx.o(.text)
    DMA1_Stream1_IRQHandler                  0x08009c8b   Thumb Code     0  startup_stm32f40xx.o(.text)
    DMA1_Stream2_IRQHandler                  0x08009c8b   Thumb Code     0  startup_stm32f40xx.o(.text)
    DMA1_Stream3_IRQHandler                  0x08009c8b   Thumb Code     0  startup_stm32f40xx.o(.text)
    DMA1_Stream4_IRQHandler                  0x08009c8b   Thumb Code     0  startup_stm32f40xx.o(.text)
    DMA1_Stream5_IRQHandler                  0x08009c8b   Thumb Code     0  startup_stm32f40xx.o(.text)
    DMA1_Stream6_IRQHandler                  0x08009c8b   Thumb Code     0  startup_stm32f40xx.o(.text)
    DMA1_Stream7_IRQHandler                  0x08009c8b   Thumb Code     0  startup_stm32f40xx.o(.text)
    DMA2_Stream0_IRQHandler                  0x08009c8b   Thumb Code     0  startup_stm32f40xx.o(.text)
    DMA2_Stream1_IRQHandler                  0x08009c8b   Thumb Code     0  startup_stm32f40xx.o(.text)
    DMA2_Stream2_IRQHandler                  0x08009c8b   Thumb Code     0  startup_stm32f40xx.o(.text)
    DMA2_Stream3_IRQHandler                  0x08009c8b   Thumb Code     0  startup_stm32f40xx.o(.text)
    DMA2_Stream4_IRQHandler                  0x08009c8b   Thumb Code     0  startup_stm32f40xx.o(.text)
    DMA2_Stream5_IRQHandler                  0x08009c8b   Thumb Code     0  startup_stm32f40xx.o(.text)
    DMA2_Stream6_IRQHandler                  0x08009c8b   Thumb Code     0  startup_stm32f40xx.o(.text)
    DMA2_Stream7_IRQHandler                  0x08009c8b   Thumb Code     0  startup_stm32f40xx.o(.text)
    ETH_WKUP_IRQHandler                      0x08009c8b   Thumb Code     0  startup_stm32f40xx.o(.text)
    EXTI0_IRQHandler                         0x08009c8b   Thumb Code     0  startup_stm32f40xx.o(.text)
    EXTI15_10_IRQHandler                     0x08009c8b   Thumb Code     0  startup_stm32f40xx.o(.text)
    EXTI1_IRQHandler                         0x08009c8b   Thumb Code     0  startup_stm32f40xx.o(.text)
    EXTI2_IRQHandler                         0x08009c8b   Thumb Code     0  startup_stm32f40xx.o(.text)
    EXTI3_IRQHandler                         0x08009c8b   Thumb Code     0  startup_stm32f40xx.o(.text)
    EXTI4_IRQHandler                         0x08009c8b   Thumb Code     0  startup_stm32f40xx.o(.text)
    EXTI9_5_IRQHandler                       0x08009c8b   Thumb Code     0  startup_stm32f40xx.o(.text)
    FLASH_IRQHandler                         0x08009c8b   Thumb Code     0  startup_stm32f40xx.o(.text)
    FPU_IRQHandler                           0x08009c8b   Thumb Code     0  startup_stm32f40xx.o(.text)
    FSMC_IRQHandler                          0x08009c8b   Thumb Code     0  startup_stm32f40xx.o(.text)
    HASH_RNG_IRQHandler                      0x08009c8b   Thumb Code     0  startup_stm32f40xx.o(.text)
    I2C1_ER_IRQHandler                       0x08009c8b   Thumb Code     0  startup_stm32f40xx.o(.text)
    I2C1_EV_IRQHandler                       0x08009c8b   Thumb Code     0  startup_stm32f40xx.o(.text)
    I2C2_ER_IRQHandler                       0x08009c8b   Thumb Code     0  startup_stm32f40xx.o(.text)
    I2C2_EV_IRQHandler                       0x08009c8b   Thumb Code     0  startup_stm32f40xx.o(.text)
    I2C3_ER_IRQHandler                       0x08009c8b   Thumb Code     0  startup_stm32f40xx.o(.text)
    I2C3_EV_IRQHandler                       0x08009c8b   Thumb Code     0  startup_stm32f40xx.o(.text)
    OTG_FS_IRQHandler                        0x08009c8b   Thumb Code     0  startup_stm32f40xx.o(.text)
    OTG_FS_WKUP_IRQHandler                   0x08009c8b   Thumb Code     0  startup_stm32f40xx.o(.text)
    OTG_HS_EP1_IN_IRQHandler                 0x08009c8b   Thumb Code     0  startup_stm32f40xx.o(.text)
    OTG_HS_EP1_OUT_IRQHandler                0x08009c8b   Thumb Code     0  startup_stm32f40xx.o(.text)
    OTG_HS_IRQHandler                        0x08009c8b   Thumb Code     0  startup_stm32f40xx.o(.text)
    OTG_HS_WKUP_IRQHandler                   0x08009c8b   Thumb Code     0  startup_stm32f40xx.o(.text)
    PVD_IRQHandler                           0x08009c8b   Thumb Code     0  startup_stm32f40xx.o(.text)
    RCC_IRQHandler                           0x08009c8b   Thumb Code     0  startup_stm32f40xx.o(.text)
    RTC_Alarm_IRQHandler                     0x08009c8b   Thumb Code     0  startup_stm32f40xx.o(.text)
    RTC_WKUP_IRQHandler                      0x08009c8b   Thumb Code     0  startup_stm32f40xx.o(.text)
    SDIO_IRQHandler                          0x08009c8b   Thumb Code     0  startup_stm32f40xx.o(.text)
    SPI1_IRQHandler                          0x08009c8b   Thumb Code     0  startup_stm32f40xx.o(.text)
    SPI2_IRQHandler                          0x08009c8b   Thumb Code     0  startup_stm32f40xx.o(.text)
    SPI3_IRQHandler                          0x08009c8b   Thumb Code     0  startup_stm32f40xx.o(.text)
    TAMP_STAMP_IRQHandler                    0x08009c8b   Thumb Code     0  startup_stm32f40xx.o(.text)
    TIM1_BRK_TIM9_IRQHandler                 0x08009c8b   Thumb Code     0  startup_stm32f40xx.o(.text)
    TIM1_CC_IRQHandler                       0x08009c8b   Thumb Code     0  startup_stm32f40xx.o(.text)
    TIM1_TRG_COM_TIM11_IRQHandler            0x08009c8b   Thumb Code     0  startup_stm32f40xx.o(.text)
    TIM1_UP_TIM10_IRQHandler                 0x08009c8b   Thumb Code     0  startup_stm32f40xx.o(.text)
    TIM2_IRQHandler                          0x08009c8b   Thumb Code     0  startup_stm32f40xx.o(.text)
    TIM4_IRQHandler                          0x08009c8b   Thumb Code     0  startup_stm32f40xx.o(.text)
    TIM5_IRQHandler                          0x08009c8b   Thumb Code     0  startup_stm32f40xx.o(.text)
    TIM6_DAC_IRQHandler                      0x08009c8b   Thumb Code     0  startup_stm32f40xx.o(.text)
    TIM7_IRQHandler                          0x08009c8b   Thumb Code     0  startup_stm32f40xx.o(.text)
    TIM8_BRK_TIM12_IRQHandler                0x08009c8b   Thumb Code     0  startup_stm32f40xx.o(.text)
    TIM8_CC_IRQHandler                       0x08009c8b   Thumb Code     0  startup_stm32f40xx.o(.text)
    TIM8_TRG_COM_TIM14_IRQHandler            0x08009c8b   Thumb Code     0  startup_stm32f40xx.o(.text)
    TIM8_UP_TIM13_IRQHandler                 0x08009c8b   Thumb Code     0  startup_stm32f40xx.o(.text)
    UART4_IRQHandler                         0x08009c8b   Thumb Code     0  startup_stm32f40xx.o(.text)
    UART5_IRQHandler                         0x08009c8b   Thumb Code     0  startup_stm32f40xx.o(.text)
    USART3_IRQHandler                        0x08009c8b   Thumb Code     0  startup_stm32f40xx.o(.text)
    USART6_IRQHandler                        0x08009c8b   Thumb Code     0  startup_stm32f40xx.o(.text)
    WWDG_IRQHandler                          0x08009c8b   Thumb Code     0  startup_stm32f40xx.o(.text)
    __user_initial_stackheap                 0x08009c8d   Thumb Code     0  startup_stm32f40xx.o(.text)
    SystemInit                               0x08009d8d   Thumb Code    88  system_stm32f4xx.o(.text)
    SystemCoreClockUpdate                    0x08009de5   Thumb Code   174  system_stm32f4xx.o(.text)
    rt_hw_interrupt_disable                  0x08009ec1   Thumb Code     8  context_rvds.o(.text)
    rt_hw_interrupt_enable                   0x08009ec9   Thumb Code     6  context_rvds.o(.text)
    rt_hw_context_switch                     0x08009ecf   Thumb Code    32  context_rvds.o(.text)
    rt_hw_context_switch_interrupt           0x08009ecf   Thumb Code     0  context_rvds.o(.text)
    PendSV_Handler                           0x08009eef   Thumb Code   108  context_rvds.o(.text)
    rt_hw_context_switch_to                  0x08009f5b   Thumb Code    70  context_rvds.o(.text)
    rt_hw_interrupt_thread_switch            0x08009fa1   Thumb Code     4  context_rvds.o(.text)
    HardFault_Handler                        0x08009fa5   Thumb Code    20  context_rvds.o(.text)
    rt_hw_stack_init                         0x08009fd1   Thumb Code    74  cpuport.o(.text)
    rt_hw_exception_install                  0x0800a01b   Thumb Code     6  cpuport.o(.text)
    rt_hw_hard_fault_exception               0x0800a021   Thumb Code   112  cpuport.o(.text)
    rt_hw_cpu_shutdown                       0x0800a091   Thumb Code    20  cpuport.o(.text)
    rand_r                                   0x0800a161   Thumb Code    54  rand.o(.text)
    rand                                     0x0800a197   Thumb Code    10  rand.o(.text)
    random                                   0x0800a197   Thumb Code     0  rand.o(.text)
    srand                                    0x0800a1a1   Thumb Code     6  rand.o(.text)
    srandom                                  0x0800a1a1   Thumb Code     0  rand.o(.text)
    atoi                                     0x0800a1ad   Thumb Code    86  stdlib.o(.text)
    atol                                     0x0800a203   Thumb Code    84  stdlib.o(.text)
    malloc                                   0x0800a257   Thumb Code    12  stdlib.o(.text)
    free                                     0x0800a263   Thumb Code    12  stdlib.o(.text)
    realloc                                  0x0800a26f   Thumb Code    16  stdlib.o(.text)
    calloc                                   0x0800a27f   Thumb Code    16  stdlib.o(.text)
    strcpy                                   0x0800a291   Thumb Code    26  string.o(.text)
    strncpy                                  0x0800a2ab   Thumb Code    20  string.o(.text)
    strlcpy                                  0x0800a2bf   Thumb Code    66  string.o(.text)
    strcmp                                   0x0800a301   Thumb Code    28  string.o(.text)
    strncmp                                  0x0800a31d   Thumb Code    40  string.o(.text)
    strcat                                   0x0800a345   Thumb Code    32  string.o(.text)
    strncat                                  0x0800a365   Thumb Code    46  string.o(.text)
    strrchr                                  0x0800a393   Thumb Code    36  string.o(.text)
    strncasecmp                              0x0800a3b7   Thumb Code    70  string.o(.text)
    tolower                                  0x0800a3fd   Thumb Code    24  string.o(.text)
    toupper                                  0x0800a415   Thumb Code    24  string.o(.text)
    simple_strtoul                           0x0800a42d   Thumb Code   130  string.o(.text)
    simple_strtol                            0x0800a4af   Thumb Code    40  string.o(.text)
    simple_strtoull                          0x0800a4d7   Thumb Code   182  string.o(.text)
    simple_strtoll                           0x0800a58d   Thumb Code    46  string.o(.text)
    vsscanf                                  0x0800a5bb   Thumb Code   824  string.o(.text)
    sscanf                                   0x0800a8f3   Thumb Code    34  string.o(.text)
    strspn                                   0x0800a915   Thumb Code    72  string.o(.text)
    strcspn                                  0x0800a95d   Thumb Code    68  string.o(.text)
    strtok_r                                 0x0800a9a1   Thumb Code    60  string.o(.text)
    strtok                                   0x0800a9dd   Thumb Code    18  string.o(.text)
    strchr                                   0x0800a9ef   Thumb Code    32  string.o(.text)
    strtol                                   0x0800aa0f   Thumb Code    20  string.o(.text)
    strtoll                                  0x0800aa23   Thumb Code    20  string.o(.text)
    NVIC_PriorityGroupConfig                 0x0800aa3d   Thumb Code    10  misc.o(.text)
    NVIC_Init                                0x0800aa47   Thumb Code   106  misc.o(.text)
    NVIC_SetVectorTable                      0x0800aab1   Thumb Code    14  misc.o(.text)
    NVIC_SystemLPConfig                      0x0800aabf   Thumb Code    34  misc.o(.text)
    SysTick_CLKSourceConfig                  0x0800aae1   Thumb Code    40  misc.o(.text)
    DMA_DeInit                               0x0800ab1d   Thumb Code   324  stm32f4xx_dma.o(.text)
    DMA_Init                                 0x0800ac61   Thumb Code    82  stm32f4xx_dma.o(.text)
    DMA_StructInit                           0x0800acb3   Thumb Code    34  stm32f4xx_dma.o(.text)
    DMA_Cmd                                  0x0800acd5   Thumb Code    22  stm32f4xx_dma.o(.text)
    DMA_PeriphIncOffsetSizeConfig            0x0800aceb   Thumb Code    22  stm32f4xx_dma.o(.text)
    DMA_FlowControllerConfig                 0x0800ad01   Thumb Code    22  stm32f4xx_dma.o(.text)
    DMA_SetCurrDataCounter                   0x0800ad17   Thumb Code     4  stm32f4xx_dma.o(.text)
    DMA_GetCurrDataCounter                   0x0800ad1b   Thumb Code     8  stm32f4xx_dma.o(.text)
    DMA_DoubleBufferModeConfig               0x0800ad23   Thumb Code    24  stm32f4xx_dma.o(.text)
    DMA_DoubleBufferModeCmd                  0x0800ad3b   Thumb Code    22  stm32f4xx_dma.o(.text)
    DMA_MemoryTargetConfig                   0x0800ad51   Thumb Code    10  stm32f4xx_dma.o(.text)
    DMA_GetCurrentMemoryTarget               0x0800ad5b   Thumb Code    20  stm32f4xx_dma.o(.text)
    DMA_GetCmdStatus                         0x0800ad6f   Thumb Code    20  stm32f4xx_dma.o(.text)
    DMA_GetFIFOStatus                        0x0800ad83   Thumb Code    12  stm32f4xx_dma.o(.text)
    DMA_GetFlagStatus                        0x0800ad8f   Thumb Code    56  stm32f4xx_dma.o(.text)
    DMA_ClearFlag                            0x0800adc7   Thumb Code    40  stm32f4xx_dma.o(.text)
    DMA_ITConfig                             0x0800adef   Thumb Code    58  stm32f4xx_dma.o(.text)
    DMA_GetITStatus                          0x0800ae29   Thumb Code    84  stm32f4xx_dma.o(.text)
    DMA_ClearITPendingBit                    0x0800ae7d   Thumb Code    40  stm32f4xx_dma.o(.text)
    GPIO_DeInit                              0x0800aec5   Thumb Code   268  stm32f4xx_gpio.o(.text)
    GPIO_Init                                0x0800afd1   Thumb Code   144  stm32f4xx_gpio.o(.text)
    GPIO_StructInit                          0x0800b061   Thumb Code    18  stm32f4xx_gpio.o(.text)
    GPIO_PinLockConfig                       0x0800b073   Thumb Code    34  stm32f4xx_gpio.o(.text)
    GPIO_ReadInputDataBit                    0x0800b095   Thumb Code    18  stm32f4xx_gpio.o(.text)
    GPIO_ReadInputData                       0x0800b0a7   Thumb Code     8  stm32f4xx_gpio.o(.text)
    GPIO_ReadOutputDataBit                   0x0800b0af   Thumb Code    18  stm32f4xx_gpio.o(.text)
    GPIO_ReadOutputData                      0x0800b0c1   Thumb Code     8  stm32f4xx_gpio.o(.text)
    GPIO_SetBits                             0x0800b0c9   Thumb Code     4  stm32f4xx_gpio.o(.text)
    GPIO_ResetBits                           0x0800b0cd   Thumb Code     4  stm32f4xx_gpio.o(.text)
    GPIO_WriteBit                            0x0800b0d1   Thumb Code    10  stm32f4xx_gpio.o(.text)
    GPIO_Write                               0x0800b0db   Thumb Code     4  stm32f4xx_gpio.o(.text)
    GPIO_ToggleBits                          0x0800b0df   Thumb Code     8  stm32f4xx_gpio.o(.text)
    GPIO_PinAFConfig                         0x0800b0e7   Thumb Code    70  stm32f4xx_gpio.o(.text)
    RCC_DeInit                               0x0800b159   Thumb Code    82  stm32f4xx_rcc.o(.text)
    RCC_HSEConfig                            0x0800b1ab   Thumb Code    14  stm32f4xx_rcc.o(.text)
    RCC_GetFlagStatus                        0x0800b1b9   Thumb Code    60  stm32f4xx_rcc.o(.text)
    RCC_WaitForHSEStartUp                    0x0800b1f5   Thumb Code    56  stm32f4xx_rcc.o(.text)
    RCC_AdjustHSICalibrationValue            0x0800b22d   Thumb Code    20  stm32f4xx_rcc.o(.text)
    RCC_HSICmd                               0x0800b241   Thumb Code     6  stm32f4xx_rcc.o(.text)
    RCC_LSEConfig                            0x0800b247   Thumb Code    46  stm32f4xx_rcc.o(.text)
    RCC_LSICmd                               0x0800b275   Thumb Code     6  stm32f4xx_rcc.o(.text)
    RCC_PLLConfig                            0x0800b27b   Thumb Code    32  stm32f4xx_rcc.o(.text)
    RCC_PLLCmd                               0x0800b29b   Thumb Code     6  stm32f4xx_rcc.o(.text)
    RCC_PLLI2SConfig                         0x0800b2a1   Thumb Code    14  stm32f4xx_rcc.o(.text)
    RCC_PLLI2SCmd                            0x0800b2af   Thumb Code     6  stm32f4xx_rcc.o(.text)
    RCC_PLLSAIConfig                         0x0800b2b5   Thumb Code    20  stm32f4xx_rcc.o(.text)
    RCC_PLLSAICmd                            0x0800b2c9   Thumb Code     6  stm32f4xx_rcc.o(.text)
    RCC_ClockSecuritySystemCmd               0x0800b2cf   Thumb Code     6  stm32f4xx_rcc.o(.text)
    RCC_MCO1Config                           0x0800b2d5   Thumb Code    28  stm32f4xx_rcc.o(.text)
    RCC_MCO2Config                           0x0800b2f1   Thumb Code    28  stm32f4xx_rcc.o(.text)
    RCC_SYSCLKConfig                         0x0800b30d   Thumb Code    20  stm32f4xx_rcc.o(.text)
    RCC_GetSYSCLKSource                      0x0800b321   Thumb Code    12  stm32f4xx_rcc.o(.text)
    RCC_HCLKConfig                           0x0800b32d   Thumb Code    20  stm32f4xx_rcc.o(.text)
    RCC_PCLK1Config                          0x0800b341   Thumb Code    20  stm32f4xx_rcc.o(.text)
    RCC_PCLK2Config                          0x0800b355   Thumb Code    22  stm32f4xx_rcc.o(.text)
    RCC_GetClocksFreq                        0x0800b36b   Thumb Code   222  stm32f4xx_rcc.o(.text)
    RCC_RTCCLKConfig                         0x0800b449   Thumb Code    54  stm32f4xx_rcc.o(.text)
    RCC_RTCCLKCmd                            0x0800b47f   Thumb Code     8  stm32f4xx_rcc.o(.text)
    RCC_BackupResetCmd                       0x0800b487   Thumb Code     8  stm32f4xx_rcc.o(.text)
    RCC_I2SCLKConfig                         0x0800b48f   Thumb Code     6  stm32f4xx_rcc.o(.text)
    RCC_SAIBlockACLKConfig                   0x0800b495   Thumb Code    20  stm32f4xx_rcc.o(.text)
    RCC_SAIBlockBCLKConfig                   0x0800b4a9   Thumb Code    20  stm32f4xx_rcc.o(.text)
    RCC_SAIPLLI2SClkDivConfig                0x0800b4bd   Thumb Code    26  stm32f4xx_rcc.o(.text)
    RCC_SAIPLLSAIClkDivConfig                0x0800b4d7   Thumb Code    28  stm32f4xx_rcc.o(.text)
    RCC_LTDCCLKDivConfig                     0x0800b4f3   Thumb Code    20  stm32f4xx_rcc.o(.text)
    RCC_TIMCLKPresConfig                     0x0800b507   Thumb Code     6  stm32f4xx_rcc.o(.text)
    RCC_AHB1PeriphClockCmd                   0x0800b50d   Thumb Code    34  stm32f4xx_rcc.o(.text)
    RCC_AHB2PeriphClockCmd                   0x0800b52f   Thumb Code    78  stm32f4xx_rcc.o(.text)
    RCC_AHB3PeriphClockCmd                   0x0800b57d   Thumb Code    34  stm32f4xx_rcc.o(.text)
    RCC_APB1PeriphClockCmd                   0x0800b59f   Thumb Code    34  stm32f4xx_rcc.o(.text)
    RCC_APB2PeriphClockCmd                   0x0800b5c1   Thumb Code    34  stm32f4xx_rcc.o(.text)
    RCC_AHB1PeriphResetCmd                   0x0800b5e3   Thumb Code    34  stm32f4xx_rcc.o(.text)
    RCC_AHB2PeriphResetCmd                   0x0800b605   Thumb Code    34  stm32f4xx_rcc.o(.text)
    RCC_AHB3PeriphResetCmd                   0x0800b627   Thumb Code    34  stm32f4xx_rcc.o(.text)
    RCC_APB1PeriphResetCmd                   0x0800b649   Thumb Code    34  stm32f4xx_rcc.o(.text)
    RCC_APB2PeriphResetCmd                   0x0800b66b   Thumb Code    34  stm32f4xx_rcc.o(.text)
    RCC_AHB1PeriphClockLPModeCmd             0x0800b68d   Thumb Code    34  stm32f4xx_rcc.o(.text)
    RCC_AHB2PeriphClockLPModeCmd             0x0800b6af   Thumb Code    34  stm32f4xx_rcc.o(.text)
    RCC_AHB3PeriphClockLPModeCmd             0x0800b6d1   Thumb Code    34  stm32f4xx_rcc.o(.text)
    RCC_APB1PeriphClockLPModeCmd             0x0800b6f3   Thumb Code    34  stm32f4xx_rcc.o(.text)
    RCC_APB2PeriphClockLPModeCmd             0x0800b715   Thumb Code    34  stm32f4xx_rcc.o(.text)
    RCC_LSEModeConfig                        0x0800b737   Thumb Code    40  stm32f4xx_rcc.o(.text)
    RCC_ITConfig                             0x0800b75f   Thumb Code    34  stm32f4xx_rcc.o(.text)
    RCC_ClearFlag                            0x0800b781   Thumb Code    18  stm32f4xx_rcc.o(.text)
    RCC_GetITStatus                          0x0800b793   Thumb Code    22  stm32f4xx_rcc.o(.text)
    RCC_ClearITPendingBit                    0x0800b7a9   Thumb Code     8  stm32f4xx_rcc.o(.text)
    SPI_I2S_DeInit                           0x0800b7b5   Thumb Code   152  stm32f4xx_spi.o(.text)
    SPI_Init                                 0x0800b84d   Thumb Code    60  stm32f4xx_spi.o(.text)
    I2S_Init                                 0x0800b889   Thumb Code   396  stm32f4xx_spi.o(.text)
    SPI_StructInit                           0x0800ba15   Thumb Code    24  stm32f4xx_spi.o(.text)
    I2S_StructInit                           0x0800ba2d   Thumb Code    20  stm32f4xx_spi.o(.text)
    SPI_Cmd                                  0x0800ba41   Thumb Code    24  stm32f4xx_spi.o(.text)
    I2S_Cmd                                  0x0800ba59   Thumb Code    24  stm32f4xx_spi.o(.text)
    SPI_DataSizeConfig                       0x0800ba71   Thumb Code    18  stm32f4xx_spi.o(.text)
    SPI_BiDirectionalLineConfig              0x0800ba83   Thumb Code    28  stm32f4xx_spi.o(.text)
    SPI_NSSInternalSoftwareConfig            0x0800ba9f   Thumb Code    30  stm32f4xx_spi.o(.text)
    SPI_SSOutputCmd                          0x0800babd   Thumb Code    24  stm32f4xx_spi.o(.text)
    SPI_TIModeCmd                            0x0800bad5   Thumb Code    24  stm32f4xx_spi.o(.text)
    I2S_FullDuplexConfig                     0x0800baed   Thumb Code    80  stm32f4xx_spi.o(.text)
    SPI_I2S_ReceiveData                      0x0800bb3d   Thumb Code     6  stm32f4xx_spi.o(.text)
    SPI_I2S_SendData                         0x0800bb43   Thumb Code     4  stm32f4xx_spi.o(.text)
    SPI_CalculateCRC                         0x0800bb47   Thumb Code    24  stm32f4xx_spi.o(.text)
    SPI_TransmitCRC                          0x0800bb5f   Thumb Code    10  stm32f4xx_spi.o(.text)
    SPI_GetCRC                               0x0800bb69   Thumb Code    16  stm32f4xx_spi.o(.text)
    SPI_GetCRCPolynomial                     0x0800bb79   Thumb Code     6  stm32f4xx_spi.o(.text)
    SPI_I2S_DMACmd                           0x0800bb7f   Thumb Code    18  stm32f4xx_spi.o(.text)
    SPI_I2S_ITConfig                         0x0800bb91   Thumb Code    68  stm32f4xx_spi.o(.text)
    SPI_I2S_GetFlagStatus                    0x0800bbd5   Thumb Code    18  stm32f4xx_spi.o(.text)
    SPI_I2S_ClearFlag                        0x0800bbe7   Thumb Code     6  stm32f4xx_spi.o(.text)
    SPI_I2S_GetITStatus                      0x0800bbed   Thumb Code    52  stm32f4xx_spi.o(.text)
    SPI_I2S_ClearITPendingBit                0x0800bc21   Thumb Code    20  stm32f4xx_spi.o(.text)
    SYSCFG_DeInit                            0x0800bc35   Thumb Code    22  stm32f4xx_syscfg.o(.text)
    SYSCFG_MemoryRemapConfig                 0x0800bc4b   Thumb Code     6  stm32f4xx_syscfg.o(.text)
    SYSCFG_MemorySwappingBank                0x0800bc51   Thumb Code     6  stm32f4xx_syscfg.o(.text)
    SYSCFG_EXTILineConfig                    0x0800bc57   Thumb Code    66  stm32f4xx_syscfg.o(.text)
    SYSCFG_ETH_MediaInterfaceConfig          0x0800bc99   Thumb Code     8  stm32f4xx_syscfg.o(.text)
    SYSCFG_CompensationCellCmd               0x0800bca1   Thumb Code     6  stm32f4xx_syscfg.o(.text)
    SYSCFG_GetCompensationCellStatus         0x0800bca7   Thumb Code    22  stm32f4xx_syscfg.o(.text)
    TIM_DeInit                               0x0800bcc9   Thumb Code   346  stm32f4xx_tim.o(.text)
    TIM_TimeBaseInit                         0x0800be23   Thumb Code   104  stm32f4xx_tim.o(.text)
    TIM_TimeBaseStructInit                   0x0800be8b   Thumb Code    18  stm32f4xx_tim.o(.text)
    TIM_PrescalerConfig                      0x0800be9d   Thumb Code     6  stm32f4xx_tim.o(.text)
    TIM_CounterModeConfig                    0x0800bea3   Thumb Code    18  stm32f4xx_tim.o(.text)
    TIM_SetCounter                           0x0800beb5   Thumb Code     4  stm32f4xx_tim.o(.text)
    TIM_SetAutoreload                        0x0800beb9   Thumb Code     4  stm32f4xx_tim.o(.text)
    TIM_GetCounter                           0x0800bebd   Thumb Code     6  stm32f4xx_tim.o(.text)
    TIM_GetPrescaler                         0x0800bec3   Thumb Code     6  stm32f4xx_tim.o(.text)
    TIM_UpdateDisableConfig                  0x0800bec9   Thumb Code    24  stm32f4xx_tim.o(.text)
    TIM_UpdateRequestConfig                  0x0800bee1   Thumb Code    24  stm32f4xx_tim.o(.text)
    TIM_ARRPreloadConfig                     0x0800bef9   Thumb Code    24  stm32f4xx_tim.o(.text)
    TIM_SelectOnePulseMode                   0x0800bf11   Thumb Code    18  stm32f4xx_tim.o(.text)
    TIM_SetClockDivision                     0x0800bf23   Thumb Code    18  stm32f4xx_tim.o(.text)
    TIM_Cmd                                  0x0800bf35   Thumb Code    24  stm32f4xx_tim.o(.text)
    TIM_OC1Init                              0x0800bf4d   Thumb Code   114  stm32f4xx_tim.o(.text)
    TIM_OC2Init                              0x0800bfbf   Thumb Code   154  stm32f4xx_tim.o(.text)
    TIM_OC3Init                              0x0800c059   Thumb Code   204  stm32f4xx_tim.o(.text)
    TIM_OC4Init                              0x0800c125   Thumb Code   112  stm32f4xx_tim.o(.text)
    TIM_OCStructInit                         0x0800c195   Thumb Code    20  stm32f4xx_tim.o(.text)
    TIM_SelectOCxM                           0x0800c1a9   Thumb Code    86  stm32f4xx_tim.o(.text)
    TIM_SetCompare1                          0x0800c1ff   Thumb Code     4  stm32f4xx_tim.o(.text)
    TIM_SetCompare2                          0x0800c203   Thumb Code     4  stm32f4xx_tim.o(.text)
    TIM_SetCompare3                          0x0800c207   Thumb Code     4  stm32f4xx_tim.o(.text)
    TIM_SetCompare4                          0x0800c20b   Thumb Code     4  stm32f4xx_tim.o(.text)
    TIM_ForcedOC1Config                      0x0800c20f   Thumb Code    18  stm32f4xx_tim.o(.text)
    TIM_ForcedOC2Config                      0x0800c221   Thumb Code    26  stm32f4xx_tim.o(.text)
    TIM_ForcedOC3Config                      0x0800c23b   Thumb Code    18  stm32f4xx_tim.o(.text)
    TIM_ForcedOC4Config                      0x0800c24d   Thumb Code    26  stm32f4xx_tim.o(.text)
    TIM_OC1PreloadConfig                     0x0800c267   Thumb Code    18  stm32f4xx_tim.o(.text)
    TIM_OC2PreloadConfig                     0x0800c279   Thumb Code    26  stm32f4xx_tim.o(.text)
    TIM_OC3PreloadConfig                     0x0800c293   Thumb Code    18  stm32f4xx_tim.o(.text)
    TIM_OC4PreloadConfig                     0x0800c2a5   Thumb Code    26  stm32f4xx_tim.o(.text)
    TIM_OC1FastConfig                        0x0800c2bf   Thumb Code    18  stm32f4xx_tim.o(.text)
    TIM_OC2FastConfig                        0x0800c2d1   Thumb Code    26  stm32f4xx_tim.o(.text)
    TIM_OC3FastConfig                        0x0800c2eb   Thumb Code    18  stm32f4xx_tim.o(.text)
    TIM_OC4FastConfig                        0x0800c2fd   Thumb Code    26  stm32f4xx_tim.o(.text)
    TIM_ClearOC1Ref                          0x0800c317   Thumb Code    18  stm32f4xx_tim.o(.text)
    TIM_ClearOC2Ref                          0x0800c329   Thumb Code    24  stm32f4xx_tim.o(.text)
    TIM_ClearOC3Ref                          0x0800c341   Thumb Code    18  stm32f4xx_tim.o(.text)
    TIM_ClearOC4Ref                          0x0800c353   Thumb Code    24  stm32f4xx_tim.o(.text)
    TIM_OC1PolarityConfig                    0x0800c36b   Thumb Code    18  stm32f4xx_tim.o(.text)
    TIM_OC1NPolarityConfig                   0x0800c37d   Thumb Code    18  stm32f4xx_tim.o(.text)
    TIM_OC2PolarityConfig                    0x0800c38f   Thumb Code    26  stm32f4xx_tim.o(.text)
    TIM_OC2NPolarityConfig                   0x0800c3a9   Thumb Code    26  stm32f4xx_tim.o(.text)
    TIM_OC3PolarityConfig                    0x0800c3c3   Thumb Code    26  stm32f4xx_tim.o(.text)
    TIM_OC3NPolarityConfig                   0x0800c3dd   Thumb Code    26  stm32f4xx_tim.o(.text)
    TIM_OC4PolarityConfig                    0x0800c3f7   Thumb Code    26  stm32f4xx_tim.o(.text)
    TIM_CCxCmd                               0x0800c411   Thumb Code    30  stm32f4xx_tim.o(.text)
    TIM_CCxNCmd                              0x0800c42f   Thumb Code    30  stm32f4xx_tim.o(.text)
    TIM_SetIC4Prescaler                      0x0800c44d   Thumb Code    26  stm32f4xx_tim.o(.text)
    TIM_SetIC3Prescaler                      0x0800c4b7   Thumb Code    18  stm32f4xx_tim.o(.text)
    TIM_SetIC2Prescaler                      0x0800c511   Thumb Code    26  stm32f4xx_tim.o(.text)
    TIM_SetIC1Prescaler                      0x0800c585   Thumb Code    18  stm32f4xx_tim.o(.text)
    TIM_ICInit                               0x0800c5d1   Thumb Code   110  stm32f4xx_tim.o(.text)
    TIM_ICStructInit                         0x0800c63f   Thumb Code    18  stm32f4xx_tim.o(.text)
    TIM_PWMIConfig                           0x0800c651   Thumb Code   124  stm32f4xx_tim.o(.text)
    TIM_GetCapture1                          0x0800c6cd   Thumb Code     6  stm32f4xx_tim.o(.text)
    TIM_GetCapture2                          0x0800c6d3   Thumb Code     6  stm32f4xx_tim.o(.text)
    TIM_GetCapture3                          0x0800c6d9   Thumb Code     6  stm32f4xx_tim.o(.text)
    TIM_GetCapture4                          0x0800c6df   Thumb Code     6  stm32f4xx_tim.o(.text)
    TIM_BDTRConfig                           0x0800c6e5   Thumb Code    32  stm32f4xx_tim.o(.text)
    TIM_BDTRStructInit                       0x0800c705   Thumb Code    18  stm32f4xx_tim.o(.text)
    TIM_CtrlPWMOutputs                       0x0800c717   Thumb Code    30  stm32f4xx_tim.o(.text)
    TIM_SelectCOM                            0x0800c735   Thumb Code    24  stm32f4xx_tim.o(.text)
    TIM_CCPreloadControl                     0x0800c74d   Thumb Code    24  stm32f4xx_tim.o(.text)
    TIM_ITConfig                             0x0800c765   Thumb Code    18  stm32f4xx_tim.o(.text)
    TIM_GenerateEvent                        0x0800c777   Thumb Code     4  stm32f4xx_tim.o(.text)
    TIM_GetFlagStatus                        0x0800c77b   Thumb Code    18  stm32f4xx_tim.o(.text)
    TIM_ClearFlag                            0x0800c78d   Thumb Code     6  stm32f4xx_tim.o(.text)
    TIM_GetITStatus                          0x0800c793   Thumb Code    34  stm32f4xx_tim.o(.text)
    TIM_ClearITPendingBit                    0x0800c7b5   Thumb Code     6  stm32f4xx_tim.o(.text)
    TIM_DMAConfig                            0x0800c7bb   Thumb Code    10  stm32f4xx_tim.o(.text)
    TIM_DMACmd                               0x0800c7c5   Thumb Code    18  stm32f4xx_tim.o(.text)
    TIM_SelectCCDMA                          0x0800c7d7   Thumb Code    24  stm32f4xx_tim.o(.text)
    TIM_InternalClockConfig                  0x0800c7ef   Thumb Code    12  stm32f4xx_tim.o(.text)
    TIM_SelectInputTrigger                   0x0800c7fb   Thumb Code    18  stm32f4xx_tim.o(.text)
    TIM_ITRxExternalClockConfig              0x0800c80d   Thumb Code    24  stm32f4xx_tim.o(.text)
    TIM_TIxExternalClockConfig               0x0800c825   Thumb Code    62  stm32f4xx_tim.o(.text)
    TIM_ETRConfig                            0x0800c863   Thumb Code    28  stm32f4xx_tim.o(.text)
    TIM_ETRClockMode1Config                  0x0800c87f   Thumb Code    54  stm32f4xx_tim.o(.text)
    TIM_ETRClockMode2Config                  0x0800c8b5   Thumb Code    32  stm32f4xx_tim.o(.text)
    TIM_SelectOutputTrigger                  0x0800c8d5   Thumb Code    18  stm32f4xx_tim.o(.text)
    TIM_SelectSlaveMode                      0x0800c8e7   Thumb Code    18  stm32f4xx_tim.o(.text)
    TIM_SelectMasterSlaveMode                0x0800c8f9   Thumb Code    18  stm32f4xx_tim.o(.text)
    TIM_EncoderInterfaceConfig               0x0800c90b   Thumb Code    66  stm32f4xx_tim.o(.text)
    TIM_SelectHallSensor                     0x0800c94d   Thumb Code    24  stm32f4xx_tim.o(.text)
    TIM_RemapConfig                          0x0800c965   Thumb Code     6  stm32f4xx_tim.o(.text)
    USART_DeInit                             0x0800c96d   Thumb Code   206  stm32f4xx_usart.o(.text)
    USART_Init                               0x0800ca3b   Thumb Code   204  stm32f4xx_usart.o(.text)
    USART_StructInit                         0x0800cb07   Thumb Code    24  stm32f4xx_usart.o(.text)
    USART_ClockInit                          0x0800cb1f   Thumb Code    32  stm32f4xx_usart.o(.text)
    USART_ClockStructInit                    0x0800cb3f   Thumb Code    12  stm32f4xx_usart.o(.text)
    USART_Cmd                                0x0800cb4b   Thumb Code    24  stm32f4xx_usart.o(.text)
    USART_SetPrescaler                       0x0800cb63   Thumb Code    16  stm32f4xx_usart.o(.text)
    USART_OverSampling8Cmd                   0x0800cb73   Thumb Code    22  stm32f4xx_usart.o(.text)
    USART_OneBitMethodCmd                    0x0800cb89   Thumb Code    24  stm32f4xx_usart.o(.text)
    USART_SendData                           0x0800cba1   Thumb Code     8  stm32f4xx_usart.o(.text)
    USART_ReceiveData                        0x0800cba9   Thumb Code    10  stm32f4xx_usart.o(.text)
    USART_SetAddress                         0x0800cbb3   Thumb Code    18  stm32f4xx_usart.o(.text)
    USART_ReceiverWakeUpCmd                  0x0800cbc5   Thumb Code    24  stm32f4xx_usart.o(.text)
    USART_WakeUpConfig                       0x0800cbdd   Thumb Code    18  stm32f4xx_usart.o(.text)
    USART_LINBreakDetectLengthConfig         0x0800cbef   Thumb Code    18  stm32f4xx_usart.o(.text)
    USART_LINCmd                             0x0800cc01   Thumb Code    24  stm32f4xx_usart.o(.text)
    USART_SendBreak                          0x0800cc19   Thumb Code    10  stm32f4xx_usart.o(.text)
    USART_HalfDuplexCmd                      0x0800cc23   Thumb Code    24  stm32f4xx_usart.o(.text)
    USART_SetGuardTime                       0x0800cc3b   Thumb Code    16  stm32f4xx_usart.o(.text)
    USART_SmartCardCmd                       0x0800cc4b   Thumb Code    24  stm32f4xx_usart.o(.text)
    USART_SmartCardNACKCmd                   0x0800cc63   Thumb Code    24  stm32f4xx_usart.o(.text)
    USART_IrDAConfig                         0x0800cc7b   Thumb Code    18  stm32f4xx_usart.o(.text)
    USART_IrDACmd                            0x0800cc8d   Thumb Code    24  stm32f4xx_usart.o(.text)
    USART_DMACmd                             0x0800cca5   Thumb Code    18  stm32f4xx_usart.o(.text)
    USART_ITConfig                           0x0800ccb7   Thumb Code    74  stm32f4xx_usart.o(.text)
    USART_GetFlagStatus                      0x0800cd01   Thumb Code    26  stm32f4xx_usart.o(.text)
    USART_ClearFlag                          0x0800cd1b   Thumb Code    18  stm32f4xx_usart.o(.text)
    USART_GetITStatus                        0x0800cd2d   Thumb Code   118  stm32f4xx_usart.o(.text)
    USART_ClearITPendingBit                  0x0800cda3   Thumb Code    30  stm32f4xx_usart.o(.text)
    ETH_DeInit                               0x0800cddd   Thumb Code    22  stm32f4x7_eth.o(.text)
    ETH_StructInit                           0x0800cdf3   Thumb Code   178  stm32f4x7_eth.o(.text)
    ETH_WritePHYRegister                     0x0800cea5   Thumb Code    96  stm32f4x7_eth.o(.text)
    ETH_ReadPHYRegister                      0x0800cf05   Thumb Code    98  stm32f4x7_eth.o(.text)
    ETH_Init                                 0x0800cf67   Thumb Code   762  stm32f4x7_eth.o(.text)
    ETH_DMAReceptionCmd                      0x0800d261   Thumb Code    30  stm32f4x7_eth.o(.text)
    ETH_DMATransmissionCmd                   0x0800d27f   Thumb Code    76  stm32f4x7_eth.o(.text)
    ETH_FlushTransmitFIFO                    0x0800d2cb   Thumb Code    40  stm32f4x7_eth.o(.text)
    ETH_MACReceptionCmd                      0x0800d2f3   Thumb Code    58  stm32f4x7_eth.o(.text)
    ETH_MACTransmissionCmd                   0x0800d32d   Thumb Code    58  stm32f4x7_eth.o(.text)
    ETH_Start                                0x0800d367   Thumb Code    32  stm32f4x7_eth.o(.text)
    ETH_Stop                                 0x0800d387   Thumb Code    32  stm32f4x7_eth.o(.text)
    ETH_GetFlowControlBusyStatus             0x0800d3a7   Thumb Code    20  stm32f4x7_eth.o(.text)
    ETH_InitiatePauseControlFrame            0x0800d3bb   Thumb Code    40  stm32f4x7_eth.o(.text)
    ETH_BackPressureActivationCmd            0x0800d3e3   Thumb Code    58  stm32f4x7_eth.o(.text)
    ETH_GetMACFlagStatus                     0x0800d41d   Thumb Code    20  stm32f4x7_eth.o(.text)
    ETH_GetMACITStatus                       0x0800d431   Thumb Code    20  stm32f4x7_eth.o(.text)
    ETH_MACITConfig                          0x0800d445   Thumb Code    26  stm32f4x7_eth.o(.text)
    ETH_MACAddressConfig                     0x0800d45f   Thumb Code    46  stm32f4x7_eth.o(.text)
    ETH_GetMACAddress                        0x0800d48d   Thumb Code    36  stm32f4x7_eth.o(.text)
    ETH_MACAddressPerfectFilterCmd           0x0800d4b1   Thumb Code    72  stm32f4x7_eth.o(.text)
    ETH_MACAddressFilterConfig               0x0800d4f9   Thumb Code    74  stm32f4x7_eth.o(.text)
    ETH_MACAddressMaskBytesFilterConfig      0x0800d543   Thumb Code    90  stm32f4x7_eth.o(.text)
    ETH_Get_Received_Frame                   0x0800d59d   Thumb Code    64  stm32f4x7_eth.o(.text)
    ETH_Get_Received_Frame_interrupt         0x0800d5dd   Thumb Code   288  stm32f4x7_eth.o(.text)
    ETH_Prepare_Transmit_Descriptors         0x0800d6fd   Thumb Code   194  stm32f4x7_eth.o(.text)
    ETH_DMARxDescChainInit                   0x0800d7bf   Thumb Code    82  stm32f4x7_eth.o(.text)
    ETH_CheckFrameReceived                   0x0800d811   Thumb Code   210  stm32f4x7_eth.o(.text)
    ETH_DMATxDescChainInit                   0x0800d8e3   Thumb Code    70  stm32f4x7_eth.o(.text)
    ETH_GetDMATxDescFlagStatus               0x0800d929   Thumb Code    18  stm32f4x7_eth.o(.text)
    ETH_GetDMATxDescCollisionCount           0x0800d93b   Thumb Code    10  stm32f4x7_eth.o(.text)
    ETH_SetDMATxDescOwnBit                   0x0800d945   Thumb Code    10  stm32f4x7_eth.o(.text)
    ETH_DMATxDescTransmitITConfig            0x0800d94f   Thumb Code    22  stm32f4x7_eth.o(.text)
    ETH_DMATxDescFrameSegmentConfig          0x0800d965   Thumb Code     8  stm32f4x7_eth.o(.text)
    ETH_DMATxDescChecksumInsertionConfig     0x0800d96d   Thumb Code     8  stm32f4x7_eth.o(.text)
    ETH_DMATxDescCRCCmd                      0x0800d975   Thumb Code    22  stm32f4x7_eth.o(.text)
    ETH_DMATxDescSecondAddressChainedCmd     0x0800d98b   Thumb Code    22  stm32f4x7_eth.o(.text)
    ETH_DMATxDescShortFramePaddingCmd        0x0800d9a1   Thumb Code    22  stm32f4x7_eth.o(.text)
    ETH_DMATxDescBufferSizeConfig            0x0800d9b7   Thumb Code    14  stm32f4x7_eth.o(.text)
    ETH_GetDMARxDescFlagStatus               0x0800d9c5   Thumb Code    18  stm32f4x7_eth.o(.text)
    ETH_GetDMAPTPRxDescExtendedFlagStatus    0x0800d9d7   Thumb Code    18  stm32f4x7_eth.o(.text)
    ETH_SetDMARxDescOwnBit                   0x0800d9e9   Thumb Code    10  stm32f4x7_eth.o(.text)
    ETH_GetDMARxDescFrameLength              0x0800d9f3   Thumb Code    10  stm32f4x7_eth.o(.text)
    ETH_DMARxDescReceiveITConfig             0x0800d9fd   Thumb Code    22  stm32f4x7_eth.o(.text)
    ETH_GetDMARxDescBufferSize               0x0800da13   Thumb Code    20  stm32f4x7_eth.o(.text)
    ETH_GetRxPktSize                         0x0800da27   Thumb Code    42  stm32f4x7_eth.o(.text)
    ETH_EnhancedDescriptorCmd                0x0800da51   Thumb Code    58  stm32f4x7_eth.o(.text)
    ETH_SoftwareReset                        0x0800da8b   Thumb Code    34  stm32f4x7_eth.o(.text)
    ETH_GetSoftwareResetStatus               0x0800daad   Thumb Code    20  stm32f4x7_eth.o(.text)
    ETH_GetDMAFlagStatus                     0x0800dac1   Thumb Code    20  stm32f4x7_eth.o(.text)
    ETH_DMAClearFlag                         0x0800dad5   Thumb Code     6  stm32f4x7_eth.o(.text)
    ETH_DMAITConfig                          0x0800dadb   Thumb Code    26  stm32f4x7_eth.o(.text)
    ETH_GetDMAITStatus                       0x0800daf5   Thumb Code    20  stm32f4x7_eth.o(.text)
    ETH_DMAClearITPendingBit                 0x0800db09   Thumb Code     6  stm32f4x7_eth.o(.text)
    ETH_GetTransmitProcessState              0x0800db0f   Thumb Code    10  stm32f4x7_eth.o(.text)
    ETH_GetReceiveProcessState               0x0800db19   Thumb Code    10  stm32f4x7_eth.o(.text)
    ETH_GetFlushTransmitFIFOStatus           0x0800db23   Thumb Code    20  stm32f4x7_eth.o(.text)
    ETH_GetDMAOverflowStatus                 0x0800db37   Thumb Code    20  stm32f4x7_eth.o(.text)
    ETH_GetRxOverflowMissedFrameCounter      0x0800db4b   Thumb Code    10  stm32f4x7_eth.o(.text)
    ETH_GetBufferUnavailableMissedFrameCounter 0x0800db55   Thumb Code     8  stm32f4x7_eth.o(.text)
    ETH_GetCurrentTxDescStartAddress         0x0800db5d   Thumb Code     6  stm32f4x7_eth.o(.text)
    ETH_GetCurrentRxDescStartAddress         0x0800db63   Thumb Code     6  stm32f4x7_eth.o(.text)
    ETH_GetCurrentTxBufferAddress            0x0800db69   Thumb Code     6  stm32f4x7_eth.o(.text)
    ETH_GetCurrentRxBufferAddress            0x0800db6f   Thumb Code     6  stm32f4x7_eth.o(.text)
    ETH_ResumeDMATransmission                0x0800db75   Thumb Code     8  stm32f4x7_eth.o(.text)
    ETH_ResumeDMAReception                   0x0800db7d   Thumb Code     8  stm32f4x7_eth.o(.text)
    ETH_SetReceiveWatchdogTimer              0x0800db85   Thumb Code     6  stm32f4x7_eth.o(.text)
    ETH_PHYLoopBackCmd                       0x0800db8b   Thumb Code    52  stm32f4x7_eth.o(.text)
    ETH_ResetWakeUpFrameFilterRegisterPointer 0x0800dbbf   Thumb Code    40  stm32f4x7_eth.o(.text)
    ETH_SetWakeUpFrameFilterRegister         0x0800dbe7   Thumb Code    50  stm32f4x7_eth.o(.text)
    ETH_GlobalUnicastWakeUpCmd               0x0800dc19   Thumb Code    58  stm32f4x7_eth.o(.text)
    ETH_GetPMTFlagStatus                     0x0800dc53   Thumb Code    20  stm32f4x7_eth.o(.text)
    ETH_WakeUpFrameDetectionCmd              0x0800dc67   Thumb Code    58  stm32f4x7_eth.o(.text)
    ETH_MagicPacketDetectionCmd              0x0800dca1   Thumb Code    58  stm32f4x7_eth.o(.text)
    ETH_PowerDownCmd                         0x0800dcdb   Thumb Code    58  stm32f4x7_eth.o(.text)
    ETH_MMCCounterFullPreset                 0x0800dd15   Thumb Code    16  stm32f4x7_eth.o(.text)
    ETH_MMCCounterHalfPreset                 0x0800dd25   Thumb Code    30  stm32f4x7_eth.o(.text)
    ETH_MMCCounterFreezeCmd                  0x0800dd43   Thumb Code    34  stm32f4x7_eth.o(.text)
    ETH_MMCResetOnReadCmd                    0x0800dd65   Thumb Code    34  stm32f4x7_eth.o(.text)
    ETH_MMCCounterRolloverCmd                0x0800dd87   Thumb Code    34  stm32f4x7_eth.o(.text)
    ETH_MMCCountersReset                     0x0800dda9   Thumb Code    16  stm32f4x7_eth.o(.text)
    ETH_MMCITConfig                          0x0800ddb9   Thumb Code    78  stm32f4x7_eth.o(.text)
    ETH_GetMMCITStatus                       0x0800de07   Thumb Code    66  stm32f4x7_eth.o(.text)
    ETH_GetMMCRegister                       0x0800de49   Thumb Code     8  stm32f4x7_eth.o(.text)
    netconn_new_with_proto_and_callback      0x0800de5d   Thumb Code   198  api_lib.o(.text)
    netconn_delete                           0x0800df23   Thumb Code    36  api_lib.o(.text)
    netconn_getaddr                          0x0800df47   Thumb Code   162  api_lib.o(.text)
    netconn_bind                             0x0800dfe9   Thumb Code    98  api_lib.o(.text)
    netconn_connect                          0x0800e04b   Thumb Code    98  api_lib.o(.text)
    netconn_disconnect                       0x0800e0ad   Thumb Code    84  api_lib.o(.text)
    netconn_listen_with_backlog              0x0800e101   Thumb Code    86  api_lib.o(.text)
    netconn_accept                           0x0800e157   Thumb Code   750  api_lib.o(.text)
    netconn_recv_tcp_pbuf                    0x0800e5b1   Thumb Code    56  api_lib.o(.text)
    netconn_recv                             0x0800e5e9   Thumb Code   264  api_lib.o(.text)
    netconn_recved                           0x0800e6f1   Thumb Code    46  api_lib.o(.text)
    netconn_send                             0x0800e71f   Thumb Code    92  api_lib.o(.text)
    netconn_sendto                           0x0800e77b   Thumb Code    44  api_lib.o(.text)
    netconn_write_partly                     0x0800e7a7   Thumb Code   460  api_lib.o(.text)
    netconn_close                            0x0800e9d1   Thumb Code    14  api_lib.o(.text)
    netconn_shutdown                         0x0800e9df   Thumb Code    36  api_lib.o(.text)
    netconn_join_leave_group                 0x0800ea03   Thumb Code   106  api_lib.o(.text)
    netconn_free                             0x0800f569   Thumb Code   130  api_msg.o(.text)
    netconn_alloc                            0x0800f5eb   Thumb Code   174  api_msg.o(.text)
    do_newconn                               0x0800f7f1   Thumb Code    32  api_msg.o(.text)
    do_delconn                               0x0800f8db   Thumb Code   626  api_msg.o(.text)
    do_bind                                  0x0800fb4d   Thumb Code   116  api_msg.o(.text)
    do_connect                               0x0800fc91   Thumb Code   230  api_msg.o(.text)
    do_disconnect                            0x0800fd77   Thumb Code    46  api_msg.o(.text)
    do_listen                                0x0800fda5   Thumb Code   424  api_msg.o(.text)
    do_send                                  0x0800ff4d   Thumb Code   166  api_msg.o(.text)
    do_recv                                  0x0800fff3   Thumb Code    72  api_msg.o(.text)
    do_write                                 0x0801003b   Thumb Code   166  api_msg.o(.text)
    do_getaddr                               0x080100e1   Thumb Code   198  api_msg.o(.text)
    do_close                                 0x080101a7   Thumb Code   182  api_msg.o(.text)
    do_join_leave_group                      0x0801025d   Thumb Code    92  api_msg.o(.text)
    netbuf_new                               0x080102ed   Thumb Code    32  netbuf.o(.text)
    netbuf_delete                            0x0801030d   Thumb Code    30  netbuf.o(.text)
    netbuf_alloc                             0x0801032b   Thumb Code   104  netbuf.o(.text)
    netbuf_free                              0x08010393   Thumb Code    50  netbuf.o(.text)
    netbuf_ref                               0x080103c5   Thumb Code    92  netbuf.o(.text)
    netbuf_chain                             0x08010421   Thumb Code    80  netbuf.o(.text)
    netbuf_data                              0x08010471   Thumb Code   124  netbuf.o(.text)
    netbuf_next                              0x080104ed   Thumb Code    66  netbuf.o(.text)
    netbuf_first                             0x0801052f   Thumb Code    38  netbuf.o(.text)
    do_netifapi_netif_add                    0x08010679   Thumb Code    46  netifapi.o(.text)
    do_netifapi_netif_set_addr               0x080106a7   Thumb Code    26  netifapi.o(.text)
    do_netifapi_netif_common                 0x080106c1   Thumb Code    36  netifapi.o(.text)
    netifapi_netif_add                       0x080106e5   Thumb Code    64  netifapi.o(.text)
    netifapi_netif_set_addr                  0x08010725   Thumb Code    40  netifapi.o(.text)
    netifapi_netif_common                    0x0801074d   Thumb Code    36  netifapi.o(.text)
    lwip_socket_init                         0x08010771   Thumb Code     2  sockets.o(.text)
    lwip_accept                              0x08010a29   Thumb Code   638  sockets.o(.text)
    lwip_bind                                0x08010ca7   Thumb Code   188  sockets.o(.text)
    lwip_close                               0x08010d63   Thumb Code    98  sockets.o(.text)
    lwip_connect                             0x08010dc5   Thumb Code   204  sockets.o(.text)
    lwip_listen                              0x08010e91   Thumb Code   154  sockets.o(.text)
    lwip_recvfrom                            0x08010f2b   Thumb Code   806  sockets.o(.text)
    lwip_read                                0x08011251   Thumb Code    28  sockets.o(.text)
    lwip_recv                                0x0801126d   Thumb Code    34  sockets.o(.text)
    lwip_sendto                              0x0801128f   Thumb Code   280  sockets.o(.text)
    lwip_send                                0x080113a7   Thumb Code   156  sockets.o(.text)
    lwip_socket                              0x08011443   Thumb Code   306  sockets.o(.text)
    lwip_write                               0x08011575   Thumb Code    22  sockets.o(.text)
    lwip_select                              0x080116fb   Thumb Code   864  sockets.o(.text)
    lwip_shutdown                            0x08011a5b   Thumb Code   332  sockets.o(.text)
    lwip_getpeername                         0x08011c25   Thumb Code    22  sockets.o(.text)
    lwip_getsockname                         0x08011c3b   Thumb Code    22  sockets.o(.text)
    lwip_getsockopt                          0x08011e67   Thumb Code   474  sockets.o(.text)
    lwip_setsockopt                          0x08012267   Thumb Code   456  sockets.o(.text)
    lwip_ioctl                               0x0801242f   Thumb Code   126  sockets.o(.text)
    lwip_fcntl                               0x080124ad   Thumb Code   122  sockets.o(.text)
    tcpip_input                              0x08012609   Thumb Code    72  tcpip.o(.text)
    tcpip_callback_with_block                0x08012651   Thumb Code    90  tcpip.o(.text)
    tcpip_timeout                            0x080126ab   Thumb Code    66  tcpip.o(.text)
    tcpip_untimeout                          0x080126ed   Thumb Code    58  tcpip.o(.text)
    tcpip_apimsg                             0x08012727   Thumb Code    56  tcpip.o(.text)
    tcpip_netifapi                           0x0801275f   Thumb Code    76  tcpip.o(.text)
    tcpip_callbackmsg_new                    0x080127ab   Thumb Code    34  tcpip.o(.text)
    tcpip_callbackmsg_delete                 0x080127cd   Thumb Code    12  tcpip.o(.text)
    tcpip_trycallback                        0x080127d9   Thumb Code    28  tcpip.o(.text)
    tcpip_init                               0x080127f5   Thumb Code    70  tcpip.o(.text)
    pbuf_free_callback                       0x08012849   Thumb Code    16  tcpip.o(.text)
    mem_free_callback                        0x08012859   Thumb Code    16  tcpip.o(.text)
    sys_arch_assert                          0x08012917   Thumb Code    38  sys_arch.o(.text)
    lwip_system_init                         0x080129d5   Thumb Code   146  sys_arch.o(.text)
    sys_init                                 0x08012a67   Thumb Code     2  sys_arch.o(.text)
    sys_sem_new                              0x08012a69   Thumb Code   104  sys_arch.o(.text)
    sys_sem_free                             0x08012ad1   Thumb Code    52  sys_arch.o(.text)
    sys_sem_signal                           0x08012b05   Thumb Code    12  sys_arch.o(.text)
    sys_arch_sem_wait                        0x08012b11   Thumb Code   114  sys_arch.o(.text)
    sys_sem_valid                            0x08012b83   Thumb Code     6  sys_arch.o(.text)
    sys_sem_set_invalid                      0x08012b89   Thumb Code     6  sys_arch.o(.text)
    sys_mutex_new                            0x08012b8f   Thumb Code   102  sys_arch.o(.text)
    sys_mutex_lock                           0x08012bf5   Thumb Code    58  sys_arch.o(.text)
    sys_mutex_unlock                         0x08012c2f   Thumb Code    12  sys_arch.o(.text)
    sys_mutex_free                           0x08012c3b   Thumb Code    54  sys_arch.o(.text)
    sys_mutex_valid                          0x08012c71   Thumb Code     6  sys_arch.o(.text)
    sys_mutex_set_invalid                    0x08012c77   Thumb Code     6  sys_arch.o(.text)
    sys_mbox_new                             0x08012c7d   Thumb Code   106  sys_arch.o(.text)
    sys_mbox_free                            0x08012ce7   Thumb Code   348  sys_arch.o(.text)
    sys_mbox_post                            0x08012e43   Thumb Code    66  sys_arch.o(.text)
    sys_mbox_trypost                         0x08012e85   Thumb Code    26  sys_arch.o(.text)
    sys_arch_mbox_fetch                      0x08012e9f   Thumb Code   148  sys_arch.o(.text)
    sys_arch_mbox_tryfetch                   0x08012f33   Thumb Code    36  sys_arch.o(.text)
    sys_mbox_valid                           0x08012f57   Thumb Code     6  sys_arch.o(.text)
    sys_mbox_set_invalid                     0x08012f5d   Thumb Code     6  sys_arch.o(.text)
    sys_thread_new                           0x08012f63   Thumb Code   112  sys_arch.o(.text)
    sys_arch_protect                         0x08012fd3   Thumb Code    12  sys_arch.o(.text)
    sys_arch_unprotect                       0x08012fdf   Thumb Code    12  sys_arch.o(.text)
    sys_jiffies                              0x08012feb   Thumb Code     8  sys_arch.o(.text)
    sys_now                                  0x08012ff3   Thumb Code     8  sys_arch.o(.text)
    lwip_htons                               0x0801303d   Thumb Code    12  def.o(.text)
    lwip_ntohs                               0x08013049   Thumb Code    12  def.o(.text)
    lwip_htonl                               0x08013055   Thumb Code    26  def.o(.text)
    lwip_ntohl                               0x0801306f   Thumb Code    12  def.o(.text)
    lwip_init                                0x0801307b   Thumb Code    32  init.o(.text)
    netif_init                               0x0801309d   Thumb Code     2  netif.o(.text)
    netif_set_gw                             0x0801309f   Thumb Code    12  netif.o(.text)
    netif_set_netmask                        0x080130ab   Thumb Code    12  netif.o(.text)
    netif_set_ipaddr                         0x080130b7   Thumb Code   110  netif.o(.text)
    netif_set_addr                           0x08013125   Thumb Code    40  netif.o(.text)
    netif_add                                0x0801314d   Thumb Code   138  netif.o(.text)
    netif_set_default                        0x080131d7   Thumb Code     6  netif.o(.text)
    netif_set_down                           0x080131dd   Thumb Code    42  netif.o(.text)
    netif_remove                             0x08013207   Thumb Code   106  netif.o(.text)
    netif_find                               0x08013271   Thumb Code    64  netif.o(.text)
    netif_set_up                             0x080132b1   Thumb Code    70  netif.o(.text)
    netif_set_link_up                        0x080132f7   Thumb Code    70  netif.o(.text)
    netif_set_link_down                      0x0801333d   Thumb Code    24  netif.o(.text)
    pbuf_free                                0x08013419   Thumb Code   208  pbuf.o(.text)
    pbuf_alloc                               0x080134e9   Thumb Code  1100  pbuf.o(.text)
    pbuf_realloc                             0x08013935   Thumb Code   252  pbuf.o(.text)
    pbuf_header                              0x08013a31   Thumb Code   206  pbuf.o(.text)
    pbuf_clen                                0x08013aff   Thumb Code    18  pbuf.o(.text)
    pbuf_ref                                 0x08013b11   Thumb Code    26  pbuf.o(.text)
    pbuf_cat                                 0x08013b2b   Thumb Code   136  pbuf.o(.text)
    pbuf_chain                               0x08013bb3   Thumb Code    22  pbuf.o(.text)
    pbuf_dechain                             0x08013bc9   Thumb Code   122  pbuf.o(.text)
    pbuf_copy                                0x08013c43   Thumb Code   810  pbuf.o(.text)
    pbuf_copy_partial                        0x08013f6d   Thumb Code   190  pbuf.o(.text)
    pbuf_take                                0x0801402b   Thumb Code   210  pbuf.o(.text)
    pbuf_coalesce                            0x080140fd   Thumb Code    84  pbuf.o(.text)
    pbuf_get_at                              0x08014151   Thumb Code    46  pbuf.o(.text)
    pbuf_memcmp                              0x0801417f   Thumb Code    96  pbuf.o(.text)
    pbuf_memfind                             0x080141df   Thumb Code    76  pbuf.o(.text)
    pbuf_strstr                              0x0801422b   Thumb Code    60  pbuf.o(.text)
    raw_input                                0x08014351   Thumb Code   102  raw.o(.text)
    raw_bind                                 0x080143b7   Thumb Code    16  raw.o(.text)
    raw_connect                              0x080143c7   Thumb Code    16  raw.o(.text)
    raw_recv                                 0x080143d7   Thumb Code     6  raw.o(.text)
    raw_sendto                               0x080143dd   Thumb Code   176  raw.o(.text)
    raw_send                                 0x0801448d   Thumb Code    18  raw.o(.text)
    raw_remove                               0x0801449f   Thumb Code    58  raw.o(.text)
    raw_new                                  0x080144d9   Thumb Code    44  raw.o(.text)
    tcp_init                                 0x08014559   Thumb Code     2  tcp.o(.text)
    tcp_seg_free                             0x0801455b   Thumb Code    24  tcp.o(.text)
    tcp_segs_free                            0x08014573   Thumb Code    24  tcp.o(.text)
    tcp_pcb_purge                            0x0801458b   Thumb Code    72  tcp.o(.text)
    tcp_slowtmr                              0x080145d3   Thumb Code  1416  tcp.o(.text)
    tcp_pcb_remove                           0x08014b5b   Thumb Code   222  tcp.o(.text)
    tcp_close                                0x08014dfb   Thumb Code    28  tcp.o(.text)
    tcp_update_rcv_ann_wnd                   0x08014e17   Thumb Code   106  tcp.o(.text)
    tcp_recved                               0x08014e81   Thumb Code   404  tcp.o(.text)
    tcp_recv_null                            0x08015015   Thumb Code    46  tcp.o(.text)
    tcp_process_refused_data                 0x08015043   Thumb Code   142  tcp.o(.text)
    tcp_fasttmr                              0x080150d1   Thumb Code   110  tcp.o(.text)
    tcp_tmr                                  0x0801513f   Thumb Code    30  tcp.o(.text)
    tcp_shutdown                             0x0801515d   Thumb Code    98  tcp.o(.text)
    tcp_abandon                              0x080151bf   Thumb Code   170  tcp.o(.text)
    tcp_abort                                0x08015269   Thumb Code    14  tcp.o(.text)
    tcp_bind                                 0x080152d7   Thumb Code   164  tcp.o(.text)
    tcp_listen_with_backlog                  0x08015383   Thumb Code   220  tcp.o(.text)
    tcp_eff_send_mss                         0x0801545f   Thumb Code    46  tcp.o(.text)
    tcp_next_iss                             0x0801548d   Thumb Code    20  tcp.o(.text)
    tcp_connect                              0x080154a1   Thumb Code   534  tcp.o(.text)
    tcp_setprio                              0x080156b7   Thumb Code     4  tcp.o(.text)
    tcp_seg_copy                             0x080156bb   Thumb Code    38  tcp.o(.text)
    tcp_alloc                                0x0801575f   Thumb Code   180  tcp.o(.text)
    tcp_new                                  0x08015813   Thumb Code    10  tcp.o(.text)
    tcp_arg                                  0x0801581d   Thumb Code     4  tcp.o(.text)
    tcp_recv                                 0x08015821   Thumb Code    44  tcp.o(.text)
    tcp_sent                                 0x0801584d   Thumb Code    42  tcp.o(.text)
    tcp_err                                  0x08015877   Thumb Code    44  tcp.o(.text)
    tcp_accept                               0x080158a3   Thumb Code     4  tcp.o(.text)
    tcp_poll                                 0x080158a7   Thumb Code    50  tcp.o(.text)
    tcp_debug_state_str                      0x080158d9   Thumb Code    10  tcp.o(.text)
    tcp_input                                0x08017001   Thumb Code  1664  tcp_in.o(.text)
    tcp_enqueue_flags                        0x080177e9   Thumb Code   406  tcp_out.o(.text)
    tcp_send_fin                             0x0801797f   Thumb Code    74  tcp_out.o(.text)
    tcp_write                                0x08017c21   Thumb Code  1564  tcp_out.o(.text)
    tcp_send_empty_ack                       0x0801823d   Thumb Code    96  tcp_out.o(.text)
    tcp_output                               0x0801837d   Thumb Code   664  tcp_out.o(.text)
    tcp_rst                                  0x08018615   Thumb Code   170  tcp_out.o(.text)
    tcp_rexmit_rto                           0x080186bf   Thumb Code    58  tcp_out.o(.text)
    tcp_rexmit                               0x080186f9   Thumb Code    90  tcp_out.o(.text)
    tcp_rexmit_fast                          0x08018753   Thumb Code   112  tcp_out.o(.text)
    tcp_keepalive                            0x080187c3   Thumb Code    86  tcp_out.o(.text)
    tcp_zero_window_probe                    0x08018819   Thumb Code   182  tcp_out.o(.text)
    sys_timeout                              0x080188d1   Thumb Code   176  timers.o(.text)
    tcp_timer_needed                         0x080189a9   Thumb Code    38  timers.o(.text)
    sys_timeouts_init                        0x080189f9   Thumb Code    26  timers.o(.text)
    sys_untimeout                            0x08018a13   Thumb Code    88  timers.o(.text)
    sys_timeouts_mbox_fetch                  0x08018a6b   Thumb Code   130  timers.o(.text)
    udp_init                                 0x08018b6d   Thumb Code     2  udp.o(.text)
    udp_input                                0x08018bbf   Thumb Code   482  udp.o(.text)
    udp_bind                                 0x08018da1   Thumb Code   148  udp.o(.text)
    udp_sendto_if                            0x08018e35   Thumb Code   444  udp.o(.text)
    udp_sendto                               0x08018ff1   Thumb Code    64  udp.o(.text)
    udp_send                                 0x08019031   Thumb Code    20  udp.o(.text)
    udp_connect                              0x08019045   Thumb Code    94  udp.o(.text)
    udp_disconnect                           0x080190a3   Thumb Code    16  udp.o(.text)
    udp_recv                                 0x080190b3   Thumb Code     6  udp.o(.text)
    udp_remove                               0x080190b9   Thumb Code    58  udp.o(.text)
    udp_new                                  0x080190f3   Thumb Code    30  udp.o(.text)
    icmp_input                               0x08019119   Thumb Code   494  icmp.o(.text)
    icmp_dest_unreach                        0x08019391   Thumb Code    18  icmp.o(.text)
    igmp_init                                0x080194e5   Thumb Code    14  igmp.o(.text)
    igmp_lookfor_group                       0x080194f3   Thumb Code    40  igmp.o(.text)
    igmp_start                               0x08019565   Thumb Code    50  igmp.o(.text)
    igmp_stop                                0x08019597   Thumb Code    76  igmp.o(.text)
    igmp_report_groups                       0x0801962b   Thumb Code    32  igmp.o(.text)
    igmp_input                               0x0801968d   Thumb Code   248  igmp.o(.text)
    igmp_joingroup                           0x08019859   Thumb Code   444  igmp.o(.text)
    igmp_leavegroup                          0x08019a15   Thumb Code   198  igmp.o(.text)
    igmp_tmr                                 0x08019aef   Thumb Code    38  igmp.o(.text)
    inet_chksum_pseudo                       0x08019bef   Thumb Code   162  inet_chksum.o(.text)
    inet_chksum_pseudo_partial               0x08019c91   Thumb Code   212  inet_chksum.o(.text)
    inet_chksum                              0x08019d65   Thumb Code    20  inet_chksum.o(.text)
    inet_chksum_pbuf                         0x08019d79   Thumb Code    86  inet_chksum.o(.text)
    ip_route                                 0x08019e05   Thumb Code    76  ip.o(.text)
    ip_input                                 0x08019e51   Thumb Code   448  ip.o(.text)
    ip_output_if_opt                         0x0801a011   Thumb Code   394  ip.o(.text)
    ip_output_if                             0x0801a19b   Thumb Code    52  ip.o(.text)
    ip_output                                0x0801a1cf   Thumb Code   204  ip.o(.text)
    ip4_addr_isbroadcast                     0x0801a29d   Thumb Code    78  ip_addr.o(.text)
    ip4_addr_netmask_valid                   0x0801a2eb   Thumb Code    56  ip_addr.o(.text)
    ipaddr_aton                              0x0801a323   Thumb Code   366  ip_addr.o(.text)
    ipaddr_addr                              0x0801a491   Thumb Code    24  ip_addr.o(.text)
    ipaddr_ntoa_r                            0x0801a4a9   Thumb Code   168  ip_addr.o(.text)
    ipaddr_ntoa                              0x0801a551   Thumb Code    16  ip_addr.o(.text)
    etharp_tmr                               0x0801a637   Thumb Code   138  etharp.o(.text)
    etharp_cleanup_netif                     0x0801aafb   Thumb Code    52  etharp.o(.text)
    etharp_find_addr                         0x0801ab2f   Thumb Code   108  etharp.o(.text)
    etharp_request                           0x0801add7   Thumb Code    36  etharp.o(.text)
    etharp_query                             0x0801ae89   Thumb Code   680  etharp.o(.text)
    etharp_output                            0x0801b131   Thumb Code   390  etharp.o(.text)
    ethernet_input                           0x0801b2b7   Thumb Code   340  etharp.o(.text)
    eth_device_init_with_flag                0x0801b475   Thumb Code   180  ethernetif.o(.text)
    eth_device_init                          0x0801b529   Thumb Code    24  ethernetif.o(.text)
    eth_device_ready                         0x0801b541   Thumb Code    22  ethernetif.o(.text)
    eth_device_linkchange                    0x0801b557   Thumb Code    64  ethernetif.o(.text)
    eth_system_device_init                   0x0801b693   Thumb Code   206  ethernetif.o(.text)
    list_if                                  0x0801b761   Thumb Code   722  ethernetif.o(.text)
    ethernetif_init                          0x0801bad9   Thumb Code    62  ethernetif.o(.text)
    UDP_recvcgi_task                         0x0801c4d9   Thumb Code   646  udp_connect.o(.text)
    UDP_linkhub_task                         0x0801c75f   Thumb Code   126  udp_connect.o(.text)
    UDP_ground_task                          0x0801c7dd   Thumb Code   126  udp_connect.o(.text)
    quaternion_to_euler                      0x0801c85b   Thumb Code   748  udp_connect.o(.text)
    message_hangle                           0x0801cb47   Thumb Code   316  udp_connect.o(.text)
    mavlink_prase                            0x0801cc83   Thumb Code   120  udp_connect.o(.text)
    UDP_fc_task                              0x0801ccfb   Thumb Code   164  udp_connect.o(.text)
    udp_connect_init                         0x0801cd9f   Thumb Code   700  udp_connect.o(.text)
    udp_recv_handle                          0x0801d05b   Thumb Code   242  udp_connect.o(.text)
    CreateMulticastListen                    0x0801d14d   Thumb Code    76  udp_connect.o(.text)
    udp_server_init                          0x0801d199   Thumb Code   148  udp_connect.o(.text)
    udp_senddata                             0x0801d22d   Thumb Code    46  udp_connect.o(.text)
    udp_connection_close                     0x0801d25b   Thumb Code    18  udp_connect.o(.text)
    httpd_init                               0x0801e39f   Thumb Code    18  httpd.o(.text)
    http_set_ssi_handler                     0x0801e3b1   Thumb Code   108  httpd.o(.text)
    http_set_cgi_handlers                    0x0801e41d   Thumb Code    74  httpd.o(.text)
    fs_open                                  0x0801e5ff   Thumb Code    70  fs.o(.text)
    fs_close                                 0x0801e645   Thumb Code    12  fs.o(.text)
    fs_read                                  0x0801e651   Thumb Code    62  fs.o(.text)
    fs_bytes_left                            0x0801e68f   Thumb Code    10  fs.o(.text)
    TXfreq_Handler                           0x0801e6cd   Thumb Code    78  httpd_cgi_ssi.o(.text)
    RXfreq_Handler                           0x0801e71b   Thumb Code    78  httpd_cgi_ssi.o(.text)
    RFtemp_Handler                           0x0801e769   Thumb Code    32  httpd_cgi_ssi.o(.text)
    BBtemp_Handler                           0x0801e789   Thumb Code    32  httpd_cgi_ssi.o(.text)
    Antenna_Handler                          0x0801e7a9   Thumb Code    20  httpd_cgi_ssi.o(.text)
    LDPCPASS_Handler                         0x0801e7bd   Thumb Code   800  httpd_cgi_ssi.o(.text)
    LDPCFAIL_Handler                         0x0801eadd   Thumb Code   788  httpd_cgi_ssi.o(.text)
    SNR_Handler                              0x0801edf1   Thumb Code    32  httpd_cgi_ssi.o(.text)
    TXPOWER_Handler                          0x0801ee11   Thumb Code   230  httpd_cgi_ssi.o(.text)
    Downlink_Handler                         0x0801eef7   Thumb Code    64  httpd_cgi_ssi.o(.text)
    BW_Handler                               0x0801ef37   Thumb Code    48  httpd_cgi_ssi.o(.text)
    AVGA_Handler                             0x0801ef67   Thumb Code    32  httpd_cgi_ssi.o(.text)
    ARSSI_Handler                            0x0801ef87   Thumb Code    36  httpd_cgi_ssi.o(.text)
    BVGA_Handler                             0x0801efab   Thumb Code    32  httpd_cgi_ssi.o(.text)
    BRSSI_Handler                            0x0801efcb   Thumb Code    36  httpd_cgi_ssi.o(.text)
    ANTENNA_Handler                          0x0801efef   Thumb Code    10  httpd_cgi_ssi.o(.text)
    RxLost_Handler                           0x0801eff9   Thumb Code    20  httpd_cgi_ssi.o(.text)
    CONFIG_CGI_Handler                       0x0801f0f7   Thumb Code     8  httpd_cgi_ssi.o(.text)
    BACKHOME_CGI_Handler                     0x0801f0ff   Thumb Code     8  httpd_cgi_ssi.o(.text)
    TXFREQ_CGI_Handler                       0x0801f107   Thumb Code   164  httpd_cgi_ssi.o(.text)
    RXFREQ_CGI_Handler                       0x0801f1ab   Thumb Code   164  httpd_cgi_ssi.o(.text)
    TXPOWER_CGI_Handler                      0x0801f24f   Thumb Code   360  httpd_cgi_ssi.o(.text)
    DOWNLINK_CGI_Handler                     0x0801f3b7   Thumb Code   148  httpd_cgi_ssi.o(.text)
    ANT_SEL_CGI_Handler                      0x0801f44b   Thumb Code   124  httpd_cgi_ssi.o(.text)
    httpd_ssi_init                           0x0801f4c7   Thumb Code    14  httpd_cgi_ssi.o(.text)
    httpd_cgi_init                           0x0801f4d5   Thumb Code    12  httpd_cgi_ssi.o(.text)
    __use_no_semihosting                     0x0801f54d   Thumb Code     2  use_no_semi_2.o(.text)
    __2printf                                0x0801f551   Thumb Code    20  noretval__2printf.o(.text)
    __2sprintf                               0x0801f569   Thumb Code    34  noretval__2sprintf.o(.text)
    __printf                                 0x0801f591   Thumb Code   104  __printf.o(.text)
    _printf_int_dec                          0x0801f5f9   Thumb Code   104  _printf_dec.o(.text)
    strstr                                   0x0801f671   Thumb Code    36  strstr.o(.text)
    memcmp                                   0x0801f695   Thumb Code    88  memcmp.o(.text)
    strlen                                   0x0801f6ed   Thumb Code    62  strlen.o(.text)
    __aeabi_memcpy                           0x0801f72b   Thumb Code     0  rt_memcpy_v6.o(.text)
    __rt_memcpy                              0x0801f72b   Thumb Code   138  rt_memcpy_v6.o(.text)
    _memcpy_lastbytes                        0x0801f791   Thumb Code     0  rt_memcpy_v6.o(.text)
    __aeabi_memcpy4                          0x0801f7b5   Thumb Code     0  rt_memcpy_w.o(.text)
    __aeabi_memcpy8                          0x0801f7b5   Thumb Code     0  rt_memcpy_w.o(.text)
    __rt_memcpy_w                            0x0801f7b5   Thumb Code   100  rt_memcpy_w.o(.text)
    _memcpy_lastbytes_aligned                0x0801f7fd   Thumb Code     0  rt_memcpy_w.o(.text)
    __aeabi_memclr                           0x0801f819   Thumb Code     0  rt_memclr.o(.text)
    __rt_memclr                              0x0801f819   Thumb Code    68  rt_memclr.o(.text)
    _memset                                  0x0801f81d   Thumb Code     0  rt_memclr.o(.text)
    __aeabi_memclr4                          0x0801f85d   Thumb Code     0  rt_memclr_w.o(.text)
    __aeabi_memclr8                          0x0801f85d   Thumb Code     0  rt_memclr_w.o(.text)
    __rt_memclr_w                            0x0801f85d   Thumb Code    78  rt_memclr_w.o(.text)
    _memset_w                                0x0801f861   Thumb Code     0  rt_memclr_w.o(.text)
    __use_two_region_memory                  0x0801f8ab   Thumb Code     2  heapauxi.o(.text)
    __rt_heap_escrow$2region                 0x0801f8ad   Thumb Code     2  heapauxi.o(.text)
    __rt_heap_expand$2region                 0x0801f8af   Thumb Code     2  heapauxi.o(.text)
    __I$use$semihosting                      0x0801f8b1   Thumb Code     0  use_no_semi.o(.text)
    __use_no_semihosting_swi                 0x0801f8b1   Thumb Code     2  use_no_semi.o(.text)
    __read_errno                             0x0801f8b3   Thumb Code    10  _rserrno.o(.text)
    __set_errno                              0x0801f8bd   Thumb Code    12  _rserrno.o(.text)
    _printf_int_common                       0x0801f8c9   Thumb Code   178  _printf_intcommon.o(.text)
    __lib_sel_fp_printf                      0x0801f97b   Thumb Code     2  _printf_fp_dec.o(.text)
    _printf_fp_dec_real                      0x0801fb29   Thumb Code   620  _printf_fp_dec.o(.text)
    _printf_char_common                      0x0801fd9f   Thumb Code    32  _printf_char_common.o(.text)
    _sputc                                   0x0801fdc5   Thumb Code    10  _sputc.o(.text)
    _printf_char_file                        0x0801fdd1   Thumb Code    32  _printf_char_file.o(.text)
    __rt_locale                              0x0801fdf5   Thumb Code     8  rt_locale_intlibspace.o(.text)
    __aeabi_errno_addr                       0x0801fdfd   Thumb Code     8  rt_errno_addr_intlibspace.o(.text)
    __errno$intlibspace                      0x0801fdfd   Thumb Code     0  rt_errno_addr_intlibspace.o(.text)
    __rt_errno_addr$intlibspace              0x0801fdfd   Thumb Code     0  rt_errno_addr_intlibspace.o(.text)
    _ll_udiv10                               0x0801fe05   Thumb Code   138  lludiv10.o(.text)
    _printf_fp_infnan                        0x0801fe91   Thumb Code   112  _printf_fp_infnan.o(.text)
    _btod_etento                             0x0801ff11   Thumb Code   216  bigflt0.o(.text)
    ferror                                   0x0801ffed   Thumb Code     8  ferror.o(.text)
    __user_libspace                          0x0801fff5   Thumb Code     8  libspace.o(.text)
    __user_perproc_libspace                  0x0801fff5   Thumb Code     0  libspace.o(.text)
    __user_perthread_libspace                0x0801fff5   Thumb Code     0  libspace.o(.text)
    __user_setup_stackheap                   0x0801fffd   Thumb Code    74  sys_stackheap_outer.o(.text)
    exit                                     0x08020047   Thumb Code    12  exit.o(.text)
    _btod_d2e                                0x08020053   Thumb Code    62  btod.o(CL$$btod_d2e)
    _d2e_denorm_low                          0x08020091   Thumb Code    70  btod.o(CL$$btod_d2e_denorm_low)
    _d2e_norm_op1                            0x080200d7   Thumb Code    96  btod.o(CL$$btod_d2e_norm_op1)
    __btod_div_common                        0x08020137   Thumb Code   696  btod.o(CL$$btod_div_common)
    _e2e                                     0x0802046f   Thumb Code   198  btod.o(CL$$btod_e2e)
    _btod_ediv                               0x08020535   Thumb Code    40  btod.o(CL$$btod_ediv)
    _btod_emul                               0x0802055d   Thumb Code    40  btod.o(CL$$btod_emul)
    __btod_mult_common                       0x08020585   Thumb Code   580  btod.o(CL$$btod_mult_common)
    __ARM_fpclassify                         0x080207c9   Thumb Code    48  fpclassify.o(i.__ARM_fpclassify)
    __ARM_fpclassifyf                        0x080207f9   Thumb Code    38  fpclassifyf.o(i.__ARM_fpclassifyf)
    __hardfp_asin                            0x08020821   Thumb Code   770  asin.o(i.__hardfp_asin)
    __hardfp_atan2f                          0x08020b81   Thumb Code   502  atan2f.o(i.__hardfp_atan2f)
    __kernel_poly                            0x08020dd1   Thumb Code   248  poly.o(i.__kernel_poly)
    __mathlib_dbl_infnan                     0x08020ec9   Thumb Code    20  dunder.o(i.__mathlib_dbl_infnan)
    __mathlib_dbl_invalid                    0x08020ee1   Thumb Code    24  dunder.o(i.__mathlib_dbl_invalid)
    __mathlib_dbl_underflow                  0x08020f01   Thumb Code    24  dunder.o(i.__mathlib_dbl_underflow)
    __mathlib_flt_infnan2                    0x08020f21   Thumb Code     6  funder.o(i.__mathlib_flt_infnan2)
    __mathlib_flt_underflow                  0x08020f29   Thumb Code    10  funder.o(i.__mathlib_flt_underflow)
    fabs                                     0x08020f39   Thumb Code    24  fabs.o(i.fabs)
    sqrt                                     0x08020f51   Thumb Code   110  sqrt.o(i.sqrt)
    _get_lc_numeric                          0x08020fc1   Thumb Code    44  lc_numeric_c.o(locale$$code)
    __aeabi_dneg                             0x08020fed   Thumb Code     0  basic.o(x$fpl$basic)
    _dneg                                    0x08020fed   Thumb Code     6  basic.o(x$fpl$basic)
    __aeabi_fneg                             0x08020ff3   Thumb Code     0  basic.o(x$fpl$basic)
    _fneg                                    0x08020ff3   Thumb Code     6  basic.o(x$fpl$basic)
    _dabs                                    0x08020ff9   Thumb Code     6  basic.o(x$fpl$basic)
    _fabs                                    0x08020fff   Thumb Code     6  basic.o(x$fpl$basic)
    __aeabi_dadd                             0x08021005   Thumb Code     0  daddsub_clz.o(x$fpl$dadd)
    _dadd                                    0x08021005   Thumb Code   332  daddsub_clz.o(x$fpl$dadd)
    __fpl_dcmp_Inf                           0x08021155   Thumb Code    24  dcmpi.o(x$fpl$dcmpinf)
    __aeabi_ddiv                             0x0802116d   Thumb Code     0  ddiv.o(x$fpl$ddiv)
    _ddiv                                    0x0802116d   Thumb Code   552  ddiv.o(x$fpl$ddiv)
    __aeabi_cdcmple                          0x0802141d   Thumb Code     0  dleqf.o(x$fpl$dleqf)
    _dcmple                                  0x0802141d   Thumb Code   120  dleqf.o(x$fpl$dleqf)
    __fpl_dcmple_InfNaN                      0x0802147f   Thumb Code     0  dleqf.o(x$fpl$dleqf)
    __aeabi_dmul                             0x08021495   Thumb Code     0  dmul.o(x$fpl$dmul)
    _dmul                                    0x08021495   Thumb Code   332  dmul.o(x$fpl$dmul)
    __fpl_dnaninf                            0x080215e9   Thumb Code   156  dnaninf.o(x$fpl$dnaninf)
    __fpl_dretinf                            0x08021685   Thumb Code    12  dretinf.o(x$fpl$dretinf)
    __aeabi_cdrcmple                         0x08021691   Thumb Code     0  drleqf.o(x$fpl$drleqf)
    _drcmple                                 0x08021691   Thumb Code   108  drleqf.o(x$fpl$drleqf)
    __aeabi_drsub                            0x080216fd   Thumb Code     0  daddsub_clz.o(x$fpl$drsb)
    _drsb                                    0x080216fd   Thumb Code    22  daddsub_clz.o(x$fpl$drsb)
    _dsqrt                                   0x08021715   Thumb Code   404  dsqrt_umaal.o(x$fpl$dsqrt)
    __aeabi_dsub                             0x080218ad   Thumb Code     0  daddsub_clz.o(x$fpl$dsub)
    _dsub                                    0x080218ad   Thumb Code   464  daddsub_clz.o(x$fpl$dsub)
    __aeabi_f2d                              0x08021a81   Thumb Code     0  f2d.o(x$fpl$f2d)
    _f2d                                     0x08021a81   Thumb Code    86  f2d.o(x$fpl$f2d)
    __fpl_fnaninf                            0x08021ad7   Thumb Code   140  fnaninf.o(x$fpl$fnaninf)
    _fp_init                                 0x08021b63   Thumb Code    10  fpinit.o(x$fpl$fpinit)
    __fplib_config_fpu_vfp                   0x08021b6b   Thumb Code     0  fpinit.o(x$fpl$fpinit)
    __fplib_config_pureend_doubles           0x08021b6b   Thumb Code     0  fpinit.o(x$fpl$fpinit)
    _printf_fp_dec                           0x08021b6d   Thumb Code     4  printf1.o(x$fpl$printf1)
    __I$use$fp                               0x08021b70   Number         0  usenofp.o(x$fpl$usenofp)
    __lowest_bit_bitmap                      0x0802208f   Data         256  kservice.o(.constdata)
    memp_sizes                               0x080224d4   Data          28  memp.o(.constdata)
    tcp_state_str                            0x080224f0   Data          44  tcp.o(.constdata)
    tcp_backoff                              0x0802251c   Data          13  tcp.o(.constdata)
    tcp_persist_backoff                      0x08022529   Data           7  tcp.o(.constdata)
    tcp_pcb_lists                            0x08022530   Data          16  tcp.o(.constdata)
    ip_addr_any                              0x08022540   Data           4  ip_addr.o(.constdata)
    ip_addr_broadcast                        0x08022544   Data           4  ip_addr.o(.constdata)
    ethbroadcast                             0x08022548   Data           6  etharp.o(.constdata)
    ethzero                                  0x0802254e   Data           6  etharp.o(.constdata)
    g_psDefaultFilenames                     0x08022e48   Data          40  httpd.o(.constdata)
    g_pcTagLeadIn                            0x08022e70   Data           4  httpd.o(.constdata)
    g_pcTagLeadOut                           0x08022e74   Data           4  httpd.o(.constdata)
    file__autoflight_shtm                    0x08026ac8   Data          20  fs.o(.constdata)
    file__configure_shtm                     0x08026adc   Data          20  fs.o(.constdata)
    file__tuchuan_png                        0x08026af0   Data          20  fs.o(.constdata)
    downlink                                 0x08026b04   Data          84  httpd_cgi_ssi.o(.constdata)
    BW_table                                 0x08026b58   Data          60  httpd_cgi_ssi.o(.constdata)
    __fsym_hello_name                        0x08027232   Data           6  cmd.o(.rodata.name)
    __fsym_hello_desc                        0x08027238   Data          16  cmd.o(.rodata.name)
    __fsym_version_name                      0x08027248   Data           8  cmd.o(.rodata.name)
    __fsym_version_desc                      0x08027250   Data          35  cmd.o(.rodata.name)
    __fsym___cmd_version_name                0x08027273   Data          14  cmd.o(.rodata.name)
    __fsym___cmd_version_desc                0x08027281   Data          35  cmd.o(.rodata.name)
    __fsym_list_thread_name                  0x080272a4   Data          12  cmd.o(.rodata.name)
    __fsym_list_thread_desc                  0x080272b0   Data          12  cmd.o(.rodata.name)
    __fsym___cmd_list_thread_name            0x080272bc   Data          18  cmd.o(.rodata.name)
    __fsym___cmd_list_thread_desc            0x080272ce   Data          12  cmd.o(.rodata.name)
    __fsym_list_sem_name                     0x080272da   Data           9  cmd.o(.rodata.name)
    __fsym_list_sem_desc                     0x080272e3   Data          25  cmd.o(.rodata.name)
    __fsym___cmd_list_sem_name               0x080272fc   Data          15  cmd.o(.rodata.name)
    __fsym___cmd_list_sem_desc               0x0802730b   Data          25  cmd.o(.rodata.name)
    __fsym_list_event_name                   0x08027324   Data          11  cmd.o(.rodata.name)
    __fsym_list_event_desc                   0x0802732f   Data          21  cmd.o(.rodata.name)
    __fsym___cmd_list_event_name             0x08027344   Data          17  cmd.o(.rodata.name)
    __fsym___cmd_list_event_desc             0x08027355   Data          21  cmd.o(.rodata.name)
    __fsym_list_mutex_name                   0x0802736a   Data          11  cmd.o(.rodata.name)
    __fsym_list_mutex_desc                   0x08027375   Data          21  cmd.o(.rodata.name)
    __fsym___cmd_list_mutex_name             0x0802738a   Data          17  cmd.o(.rodata.name)
    __fsym___cmd_list_mutex_desc             0x0802739b   Data          21  cmd.o(.rodata.name)
    __fsym_list_mailbox_name                 0x080273b0   Data          13  cmd.o(.rodata.name)
    __fsym_list_mailbox_desc                 0x080273bd   Data          24  cmd.o(.rodata.name)
    __fsym___cmd_list_mailbox_name           0x080273d5   Data          19  cmd.o(.rodata.name)
    __fsym___cmd_list_mailbox_desc           0x080273e8   Data          24  cmd.o(.rodata.name)
    __fsym_list_msgqueue_name                0x08027400   Data          14  cmd.o(.rodata.name)
    __fsym_list_msgqueue_desc                0x0802740e   Data          29  cmd.o(.rodata.name)
    __fsym___cmd_list_msgqueue_name          0x0802742b   Data          20  cmd.o(.rodata.name)
    __fsym___cmd_list_msgqueue_desc          0x0802743f   Data          29  cmd.o(.rodata.name)
    __fsym_list_mempool_name                 0x0802745c   Data          13  cmd.o(.rodata.name)
    __fsym_list_mempool_desc                 0x08027469   Data          27  cmd.o(.rodata.name)
    __fsym___cmd_list_mempool_name           0x08027484   Data          19  cmd.o(.rodata.name)
    __fsym___cmd_list_mempool_desc           0x08027497   Data          27  cmd.o(.rodata.name)
    __fsym_list_timer_name                   0x080274b2   Data          11  cmd.o(.rodata.name)
    __fsym_list_timer_desc                   0x080274bd   Data          21  cmd.o(.rodata.name)
    __fsym___cmd_list_timer_name             0x080274d2   Data          17  cmd.o(.rodata.name)
    __fsym___cmd_list_timer_desc             0x080274e3   Data          21  cmd.o(.rodata.name)
    __fsym_list_device_name                  0x080274f8   Data          12  cmd.o(.rodata.name)
    __fsym_list_device_desc                  0x08027504   Data          22  cmd.o(.rodata.name)
    __fsym___cmd_list_device_name            0x0802751a   Data          18  cmd.o(.rodata.name)
    __fsym___cmd_list_device_desc            0x0802752c   Data          22  cmd.o(.rodata.name)
    __fsym_list_name                         0x08027542   Data           5  cmd.o(.rodata.name)
    __fsym_list_desc                         0x08027547   Data          26  cmd.o(.rodata.name)
    __fsym___cmd_phy_bd_name                 0x08027561   Data          13  cmd.o(.rodata.name)
    __fsym___cmd_phy_bd_desc                 0x0802756e   Data          19  cmd.o(.rodata.name)
    __fsym___cmd_fc_100m_name                0x08027581   Data          14  cmd.o(.rodata.name)
    __fsym___cmd_fc_100m_desc                0x0802758f   Data          27  cmd.o(.rodata.name)
    __fsym___cmd_ifconfig_name               0x080275aa   Data          15  cmd.o(.rodata.name)
    __fsym___cmd_ifconfig_desc               0x080275b9   Data          43  cmd.o(.rodata.name)
    __fsym___cmd_rd_phy_name                 0x080275e4   Data          13  cmd.o(.rodata.name)
    __fsym___cmd_rd_phy_desc                 0x080275f1   Data          20  cmd.o(.rodata.name)
    __fsym___cmd_wr_phy_name                 0x08027605   Data          13  cmd.o(.rodata.name)
    __fsym___cmd_wr_phy_desc                 0x08027612   Data          21  cmd.o(.rodata.name)
    __fsym___cmd_help_name                   0x08027627   Data          11  msh.o(.rodata.name)
    __fsym___cmd_help_desc                   0x08027632   Data          22  msh.o(.rodata.name)
    __fsym_list_mem_name                     0x08027648   Data           9  mem.o(.rodata.name)
    __fsym_list_mem_desc                     0x08027651   Data          30  mem.o(.rodata.name)
    FSymTab$$Base                            0x08027670   Number         0  cmd.o(FSymTab)
    __fsym_hello                             0x08027670   Data          12  cmd.o(FSymTab)
    __fsym_version                           0x0802767c   Data          12  cmd.o(FSymTab)
    __fsym___cmd_version                     0x08027688   Data          12  cmd.o(FSymTab)
    __fsym_list_thread                       0x08027694   Data          12  cmd.o(FSymTab)
    __fsym___cmd_list_thread                 0x080276a0   Data          12  cmd.o(FSymTab)
    __fsym_list_sem                          0x080276ac   Data          12  cmd.o(FSymTab)
    __fsym___cmd_list_sem                    0x080276b8   Data          12  cmd.o(FSymTab)
    __fsym_list_event                        0x080276c4   Data          12  cmd.o(FSymTab)
    __fsym___cmd_list_event                  0x080276d0   Data          12  cmd.o(FSymTab)
    __fsym_list_mutex                        0x080276dc   Data          12  cmd.o(FSymTab)
    __fsym___cmd_list_mutex                  0x080276e8   Data          12  cmd.o(FSymTab)
    __fsym_list_mailbox                      0x080276f4   Data          12  cmd.o(FSymTab)
    __fsym___cmd_list_mailbox                0x08027700   Data          12  cmd.o(FSymTab)
    __fsym_list_msgqueue                     0x0802770c   Data          12  cmd.o(FSymTab)
    __fsym___cmd_list_msgqueue               0x08027718   Data          12  cmd.o(FSymTab)
    __fsym_list_mempool                      0x08027724   Data          12  cmd.o(FSymTab)
    __fsym___cmd_list_mempool                0x08027730   Data          12  cmd.o(FSymTab)
    __fsym_list_timer                        0x0802773c   Data          12  cmd.o(FSymTab)
    __fsym___cmd_list_timer                  0x08027748   Data          12  cmd.o(FSymTab)
    __fsym_list_device                       0x08027754   Data          12  cmd.o(FSymTab)
    __fsym___cmd_list_device                 0x08027760   Data          12  cmd.o(FSymTab)
    __fsym_list                              0x0802776c   Data          12  cmd.o(FSymTab)
    __fsym___cmd_phy_bd                      0x08027778   Data          12  cmd.o(FSymTab)
    __fsym___cmd_fc_100m                     0x08027784   Data          12  cmd.o(FSymTab)
    __fsym___cmd_ifconfig                    0x08027790   Data          12  cmd.o(FSymTab)
    __fsym___cmd_rd_phy                      0x0802779c   Data          12  cmd.o(FSymTab)
    __fsym___cmd_wr_phy                      0x080277a8   Data          12  cmd.o(FSymTab)
    __fsym___cmd_help                        0x080277b4   Data          12  msh.o(FSymTab)
    __fsym_list_mem                          0x080277c0   Data          12  mem.o(FSymTab)
    FSymTab$$Limit                           0x080277cc   Number         0  mem.o(FSymTab)
    Region$$Table$$Base                      0x080277cc   Number         0  anon$$obj.o(Region$$Table)
    Region$$Table$$Limit                     0x080277ec   Number         0  anon$$obj.o(Region$$Table)
    flash                                    0x20000028   Data           4  fpga_upgrade.o(.data)
    upgrade_table                            0x20000034   Data           8  uart_protocol.o(.data)
    uart2_dev                                0x2000003c   Data           4  uart_protocol.o(.data)
    __stdout                                 0x2000004c   Data           4  stm32f4_uart.o(.data)
    uart1                                    0x20000050   Data          12  stm32f4_uart.o(.data)
    uart2                                    0x2000005c   Data          12  stm32f4_uart.o(.data)
    udp_tx_count                             0x20000068   Data           1  timer.o(.data)
    shell                                    0x2000006c   Data           4  shell.o(.data)
    _syscall_table_begin                     0x20000070   Data           4  symbol.o(.data)
    _syscall_table_end                       0x20000074   Data           4  symbol.o(.data)
    _sysvar_table_begin                      0x20000078   Data           4  symbol.o(.data)
    _sysvar_table_end                        0x2000007c   Data           4  symbol.o(.data)
    rt_interrupt_nest                        0x20000084   Data           1  irq.o(.data)
    rt_assert_hook                           0x20000090   Data           4  kservice.o(.data)
    rt_object_container                      0x200000ac   Data         144  object.o(.data)
    rt_current_thread                        0x20000140   Data           4  scheduler.o(.data)
    rt_current_priority                      0x20000144   Data           1  scheduler.o(.data)
    rt_thread_ready_priority_group           0x20000148   Data           4  scheduler.o(.data)
    rt_thread_defunct                        0x2000014c   Data           8  scheduler.o(.data)
    SystemCoreClock                          0x20000160   Data           4  system_stm32f4xx.o(.data)
    AHBPrescTable                            0x20000164   Data          16  system_stm32f4xx.o(.data)
    rt_interrupt_from_thread                 0x20000174   Data           4  cpuport.o(.data)
    rt_interrupt_to_thread                   0x20000178   Data           4  cpuport.o(.data)
    rt_thread_switch_interrupt_flag          0x2000017c   Data           4  cpuport.o(.data)
    _ctype                                   0x20000188   Data         256  string.o(.data)
    DMATxDescToSet                           0x2000029c   Data           4  stm32f4x7_eth.o(.data)
    DMARxDescToGet                           0x200002a0   Data           4  stm32f4x7_eth.o(.data)
    DMA_RX_FRAME_infos                       0x200002a4   Data           4  stm32f4x7_eth.o(.data)
    Frame_Rx_index                           0x200002a8   Data           4  stm32f4x7_eth.o(.data)
    netif                                    0x200002c0   Data           4  sys_arch.o(.data)
    netif_list                               0x200002cc   Data           4  netif.o(.data)
    netif_default                            0x200002d0   Data           4  netif.o(.data)
    pbuf_free_ooseq_pending                  0x200002d5   Data           1  pbuf.o(.data)
    tcp_ticks                                0x200002e0   Data           4  tcp.o(.data)
    tcp_bound_pcbs                           0x200002e4   Data           4  tcp.o(.data)
    tcp_listen_pcbs                          0x200002e8   Data           4  tcp.o(.data)
    tcp_active_pcbs                          0x200002ec   Data           4  tcp.o(.data)
    tcp_tw_pcbs                              0x200002f0   Data           4  tcp.o(.data)
    tcp_tmp_pcb                              0x200002f4   Data           4  tcp.o(.data)
    tcp_active_pcbs_changed                  0x200002f8   Data           1  tcp.o(.data)
    tcp_input_pcb                            0x2000031c   Data           4  tcp_in.o(.data)
    udp_pcbs                                 0x2000032c   Data           4  udp.o(.data)
    current_netif                            0x2000033c   Data           4  ip.o(.data)
    current_header                           0x20000340   Data           4  ip.o(.data)
    current_iphdr_src                        0x20000344   Data           4  ip.o(.data)
    current_iphdr_dest                       0x20000348   Data           4  ip.o(.data)
    tcp_demo_sendbuf                         0x2000034f   Data          21  udp_connect.o(.data)
    truck_len                                0x20000364   Data           1  udp_connect.o(.data)
    g_pcSSIExtensions                        0x20000368   Data          16  httpd.o(.data)
    g_pfnSSIHandler                          0x20000378   Data           4  httpd.o(.data)
    g_iNumTags                               0x2000037c   Data           4  httpd.o(.data)
    g_ppcTags                                0x20000380   Data           4  httpd.o(.data)
    g_pCGIs                                  0x20000384   Data           4  httpd.o(.data)
    g_iNumCGIs                               0x20000388   Data           4  httpd.o(.data)
    cgibuf                                   0x2000038c   Data           8  httpd_cgi_ssi.o(.data)
    mb_spi_dev                               0x200011e4   Data          72  application.o(.bss)
    uart_buffer                              0x20001720   Data        1040  upgrade.o(.bss)
    file_name                                0x20001f45   Data         256  ymodem.o(.bss)
    sem_attitude_change                      0x20002048   Data          56  antenna_sw.o(.bss)
    dev_status_buf                           0x20002080   Data          64  antenna_sw.o(.bss)
    uart_queue                               0x200021f8   Data          16  uart_protocol.o(.bss)
    uart1_int_rx                             0x200023cc   Data         520  stm32f4_uart.o(.bss)
    uart1_device                             0x200025d4   Data          88  stm32f4_uart.o(.bss)
    uart2_int_rx                             0x2000262c   Data         520  stm32f4_uart.o(.bss)
    uart2_device                             0x20002834   Data          88  stm32f4_uart.o(.bss)
    rt_thread_priority_table                 0x20003430   Data         256  scheduler.o(.bss)
    DMARxDscrTab                             0x20003530   Data         320  stm32f4x7_eth.o(.bss)
    DMATxDscrTab                             0x20003670   Data         320  stm32f4x7_eth.o(.bss)
    Rx_Buff                                  0x200037b0   Data       15240  stm32f4x7_eth.o(.bss)
    Tx_Buff                                  0x20007338   Data       15240  stm32f4x7_eth.o(.bss)
    RX_Frame_Descriptor                      0x2000aec0   Data          12  stm32f4x7_eth.o(.bss)
    udp_buf                                  0x2000c304   Data         100  ethernetif.o(.bss)
    attitude                                 0x2000c368   Data          28  udp_connect.o(.bss)
    attitude_last                            0x2000c384   Data          28  udp_connect.o(.bss)
    mav_return_status                        0x2000c3a0   Data          24  udp_connect.o(.bss)
    mav_message                              0x2000c3b8   Data         296  udp_connect.o(.bss)
    attitude_gl                              0x2000c4e0   Data          72  udp_connect.o(.bss)
    gps_gl                                   0x2000c528   Data          24  udp_connect.o(.bss)
    udp_con_struct                           0x2000c540   Data         112  udp_connect.o(.bss)
    udp_con_struct2                          0x2000c5b0   Data         112  udp_connect.o(.bss)
    sendbuf                                  0x2000d4e0   Data          62  udp_connect.o(.bss)
    sem_linkhub_tx                           0x2000d520   Data          56  udp_connect.o(.bss)
    truck_send_buf                           0x2000d558   Data         100  udp_connect.o(.bss)
    fs_memory                                0x2000dec0   Data         240  fs.o(.bss)
    __libspace_start                         0x2000dfb0   Data          96  libspace.o(.bss)
    __temporary_stack_top$libspace           0x2000e010   Data           0  libspace.o(.bss)
    Image$$RW_IRAM1$$ZI$$Limit               0x2000e610   Number         0  anon$$obj.o ABSOLUTE



==============================================================================

Memory Map of the image

  Image Entry point : 0x08000189

  Load Region LR_IROM1 (Base: 0x08000000, Size: 0x00027bdc, Max: 0x00100000, ABSOLUTE, COMPRESSED[0x0002792c])

    Execution Region ER_IROM1 (Base: 0x08000000, Size: 0x00027808, Max: 0x00100000, ABSOLUTE)

    Base Addr    Size         Type   Attr      Idx    E Section Name        Object

    0x08000000   0x00000188   Data   RO         1915    RESET               startup_stm32f40xx.o
    0x08000188   0x00000008   Code   RO         4320  * !!!main             c_w.l(__main.o)
    0x08000190   0x00000034   Code   RO         4650    !!!scatter          c_w.l(__scatter.o)
    0x080001c4   0x0000005a   Code   RO         4648    !!dczerorl2         c_w.l(__dczerorl2.o)
    0x0800021e   0x00000002   PAD
    0x08000220   0x0000001c   Code   RO         4652    !!handler_zi        c_w.l(__scatter_zi.o)
    0x0800023c   0x00000000   Code   RO         4303    .ARM.Collect$$_printf_percent$$00000000  c_w.l(_printf_percent.o)
    0x0800023c   0x00000006   Code   RO         4302    .ARM.Collect$$_printf_percent$$00000003  c_w.l(_printf_f.o)
    0x08000242   0x00000006   Code   RO         4301    .ARM.Collect$$_printf_percent$$00000009  c_w.l(_printf_d.o)
    0x08000248   0x00000004   Code   RO         4377    .ARM.Collect$$_printf_percent$$00000017  c_w.l(_printf_percent_end.o)
    0x0800024c   0x00000002   Code   RO         4526    .ARM.Collect$$libinit$$00000000  c_w.l(libinit.o)
    0x0800024e   0x00000004   Code   RO         4527    .ARM.Collect$$libinit$$00000001  c_w.l(libinit2.o)
    0x08000252   0x00000000   Code   RO         4530    .ARM.Collect$$libinit$$00000004  c_w.l(libinit2.o)
    0x08000252   0x00000000   Code   RO         4533    .ARM.Collect$$libinit$$0000000A  c_w.l(libinit2.o)
    0x08000252   0x00000000   Code   RO         4535    .ARM.Collect$$libinit$$0000000C  c_w.l(libinit2.o)
    0x08000252   0x00000000   Code   RO         4537    .ARM.Collect$$libinit$$0000000E  c_w.l(libinit2.o)
    0x08000252   0x00000006   Code   RO         4538    .ARM.Collect$$libinit$$0000000F  c_w.l(libinit2.o)
    0x08000258   0x00000000   Code   RO         4540    .ARM.Collect$$libinit$$00000011  c_w.l(libinit2.o)
    0x08000258   0x00000000   Code   RO         4542    .ARM.Collect$$libinit$$00000013  c_w.l(libinit2.o)
    0x08000258   0x00000000   Code   RO         4544    .ARM.Collect$$libinit$$00000015  c_w.l(libinit2.o)
    0x08000258   0x0000000a   Code   RO         4545    .ARM.Collect$$libinit$$00000016  c_w.l(libinit2.o)
    0x08000262   0x00000000   Code   RO         4546    .ARM.Collect$$libinit$$00000017  c_w.l(libinit2.o)
    0x08000262   0x00000000   Code   RO         4548    .ARM.Collect$$libinit$$00000019  c_w.l(libinit2.o)
    0x08000262   0x00000000   Code   RO         4550    .ARM.Collect$$libinit$$0000001B  c_w.l(libinit2.o)
    0x08000262   0x00000000   Code   RO         4552    .ARM.Collect$$libinit$$0000001D  c_w.l(libinit2.o)
    0x08000262   0x00000000   Code   RO         4554    .ARM.Collect$$libinit$$0000001F  c_w.l(libinit2.o)
    0x08000262   0x00000000   Code   RO         4556    .ARM.Collect$$libinit$$00000021  c_w.l(libinit2.o)
    0x08000262   0x00000000   Code   RO         4558    .ARM.Collect$$libinit$$00000023  c_w.l(libinit2.o)
    0x08000262   0x00000000   Code   RO         4560    .ARM.Collect$$libinit$$00000025  c_w.l(libinit2.o)
    0x08000262   0x00000000   Code   RO         4564    .ARM.Collect$$libinit$$0000002C  c_w.l(libinit2.o)
    0x08000262   0x00000000   Code   RO         4566    .ARM.Collect$$libinit$$0000002E  c_w.l(libinit2.o)
    0x08000262   0x00000000   Code   RO         4568    .ARM.Collect$$libinit$$00000030  c_w.l(libinit2.o)
    0x08000262   0x00000000   Code   RO         4570    .ARM.Collect$$libinit$$00000032  c_w.l(libinit2.o)
    0x08000262   0x00000002   Code   RO         4571    .ARM.Collect$$libinit$$00000033  c_w.l(libinit2.o)
    0x08000264   0x00000002   Code   RO         4599    .ARM.Collect$$libshutdown$$00000000  c_w.l(libshutdown.o)
    0x08000266   0x00000000   Code   RO         4609    .ARM.Collect$$libshutdown$$00000003  c_w.l(libshutdown2.o)
    0x08000266   0x00000000   Code   RO         4612    .ARM.Collect$$libshutdown$$00000006  c_w.l(libshutdown2.o)
    0x08000266   0x00000000   Code   RO         4615    .ARM.Collect$$libshutdown$$00000009  c_w.l(libshutdown2.o)
    0x08000266   0x00000000   Code   RO         4617    .ARM.Collect$$libshutdown$$0000000B  c_w.l(libshutdown2.o)
    0x08000266   0x00000000   Code   RO         4620    .ARM.Collect$$libshutdown$$0000000E  c_w.l(libshutdown2.o)
    0x08000266   0x00000002   Code   RO         4621    .ARM.Collect$$libshutdown$$0000000F  c_w.l(libshutdown2.o)
    0x08000268   0x00000000   Code   RO         4364    .ARM.Collect$$rtentry$$00000000  c_w.l(__rtentry.o)
    0x08000268   0x00000000   Code   RO         4448    .ARM.Collect$$rtentry$$00000002  c_w.l(__rtentry2.o)
    0x08000268   0x00000006   Code   RO         4460    .ARM.Collect$$rtentry$$00000004  c_w.l(__rtentry4.o)
    0x0800026e   0x00000000   Code   RO         4450    .ARM.Collect$$rtentry$$00000009  c_w.l(__rtentry2.o)
    0x0800026e   0x00000004   Code   RO         4451    .ARM.Collect$$rtentry$$0000000A  c_w.l(__rtentry2.o)
    0x08000272   0x00000000   Code   RO         4453    .ARM.Collect$$rtentry$$0000000C  c_w.l(__rtentry2.o)
    0x08000272   0x00000008   Code   RO         4454    .ARM.Collect$$rtentry$$0000000D  c_w.l(__rtentry2.o)
    0x0800027a   0x00000002   Code   RO         4572    .ARM.Collect$$rtexit$$00000000  c_w.l(rtexit.o)
    0x0800027c   0x00000000   Code   RO         4579    .ARM.Collect$$rtexit$$00000002  c_w.l(rtexit2.o)
    0x0800027c   0x00000004   Code   RO         4580    .ARM.Collect$$rtexit$$00000003  c_w.l(rtexit2.o)
    0x08000280   0x00000006   Code   RO         4581    .ARM.Collect$$rtexit$$00000004  c_w.l(rtexit2.o)
    0x08000286   0x00000002   PAD
    0x08000288   0x00000194   Code   RO            4    .text               startup.o
    0x0800041c   0x000002c0   Code   RO          165    .text               application.o
    0x080006dc   0x0000015c   Code   RO          830    .text               common.o
    0x08000838   0x00000224   Code   RO          871    .text               interface.o
    0x08000a5c   0x000000e0   Code   RO          901    .text               queue.o
    0x08000b3c   0x00000160   Code   RO          921    .text               fpga_upgrade.o
    0x08000c9c   0x0000044c   Code   RO          949    .text               mcu_api.o
    0x080010e8   0x000004a4   Code   RO          965    .text               spansion.o
    0x0800158c   0x000001cc   Code   RO          980    .text               spi_flash.o
    0x08001758   0x00000074   Code   RO          995    .text               upgrade.o
    0x080017cc   0x0000072c   Code   RO         1023    .text               ymodem.o
    0x08001ef8   0x000001d4   Code   RO         1052    .text               antenna_sw.o
    0x080020cc   0x0000092c   Code   RO         1081    .text               uart_protocol.o
    0x080029f8   0x000001a4   Code   RO         1115    .text               board.o
    0x08002b9c   0x000005e0   Code   RO         1143    .text               stm32f4_eth.o
    0x0800317c   0x00000012   Code   RO         1214    .text               stm32f4_it.o
    0x0800318e   0x00000002   PAD
    0x08003190   0x00000528   Code   RO         1232    .text               stm32f4_spi.o
    0x080036b8   0x000001d0   Code   RO         1260    .text               stm32f4_uart.o
    0x08003888   0x0000008c   Code   RO         1292    .text               timer.o
    0x08003914   0x0000079c   Code   RO         1347    .text               serial.o
    0x080040b0   0x0000053c   Code   RO         1369    .text               spi_bus.o
    0x080045ec   0x00000b90   Code   RO         1385    .text               cmd.o
    0x0800517c   0x00000314   Code   RO         1616    .text               msh.o
    0x08005490   0x0000093c   Code   RO         1661    .text               shell.o
    0x08005dcc   0x00000060   Code   RO         1692    .text               clock.o
    0x08005e2c   0x0000033c   Code   RO         1706    .text               device.o
    0x08006168   0x00000120   Code   RO         1720    .text               idle.o
    0x08006288   0x00001500   Code   RO         1739    .text               ipc.o
    0x08007788   0x00000048   Code   RO         1755    .text               irq.o
    0x080077d0   0x00000a4c   Code   RO         1770    .text               kservice.o
    0x0800821c   0x00000834   Code   RO         1790    .text               mem.o
    0x08008a50   0x000003c8   Code   RO         1816    .text               mempool.o
    0x08008e18   0x0000026c   Code   RO         1832    .text               object.o
    0x08009084   0x00000210   Code   RO         1851    .text               scheduler.o
    0x08009294   0x000005a0   Code   RO         1878    .text               thread.o
    0x08009834   0x0000043c   Code   RO         1895    .text               timer_1.o
    0x08009c70   0x00000040   Code   RO         1916    .text               startup_stm32f40xx.o
    0x08009cb0   0x00000210   Code   RO         1923    .text               system_stm32f4xx.o
    0x08009ec0   0x00000110   Code   RO         1950    .text               context_rvds.o
    0x08009fd0   0x00000190   Code   RO         1954    .text               cpuport.o
    0x0800a160   0x0000004c   Code   RO         1997    .text               rand.o
    0x0800a1ac   0x000000e2   Code   RO         2011    .text               stdlib.o
    0x0800a28e   0x00000002   PAD
    0x0800a290   0x000007ac   Code   RO         2023    .text               string.o
    0x0800aa3c   0x000000e0   Code   RO         2058    .text               misc.o
    0x0800ab1c   0x000003a8   Code   RO         2223    .text               stm32f4xx_dma.o
    0x0800aec4   0x00000294   Code   RO         2295    .text               stm32f4xx_gpio.o
    0x0800b158   0x0000065c   Code   RO         2412    .text               stm32f4xx_rcc.o
    0x0800b7b4   0x00000480   Code   RO         2486    .text               stm32f4xx_spi.o
    0x0800bc34   0x00000094   Code   RO         2510    .text               stm32f4xx_syscfg.o
    0x0800bcc8   0x00000ca2   Code   RO         2534    .text               stm32f4xx_tim.o
    0x0800c96a   0x00000002   PAD
    0x0800c96c   0x00000454   Code   RO         2558    .text               stm32f4xx_usart.o
    0x0800cdc0   0x0000109c   Code   RO         2606    .text               stm32f4x7_eth.o
    0x0800de5c   0x00000c5c   Code   RO         2631    .text               api_lib.o
    0x0800eab8   0x00001834   Code   RO         2710    .text               api_msg.o
    0x080102ec   0x0000038c   Code   RO         2765    .text               netbuf.o
    0x08010678   0x000000f8   Code   RO         2793    .text               netifapi.o
    0x08010770   0x00001dbc   Code   RO         2833    .text               sockets.o
    0x0801252c   0x000003c0   Code   RO         2878    .text               tcpip.o
    0x080128ec   0x00000750   Code   RO         2934    .text               sys_arch.o
    0x0801303c   0x0000003e   Code   RO         2978    .text               def.o
    0x0801307a   0x00000020   Code   RO         3002    .text               init.o
    0x0801309a   0x00000002   PAD
    0x0801309c   0x00000300   Code   RO         3099    .text               netif.o
    0x0801339c   0x00000fb4   Code   RO         3138    .text               pbuf.o
    0x08014350   0x00000208   Code   RO         3165    .text               raw.o
    0x08014558   0x0000147c   Code   RO         3197    .text               tcp.o
    0x080159d4   0x00001cd0   Code   RO         3224    .text               tcp_in.o
    0x080176a4   0x0000122a   Code   RO         3250    .text               tcp_out.o
    0x080188ce   0x00000002   PAD
    0x080188d0   0x0000029c   Code   RO         3263    .text               timers.o
    0x08018b6c   0x000005ac   Code   RO         3289    .text               udp.o
    0x08019118   0x000003cc   Code   RO         3313    .text               icmp.o
    0x080194e4   0x000006ac   Code   RO         3325    .text               igmp.o
    0x08019b90   0x00000274   Code   RO         3352    .text               inet_chksum.o
    0x08019e04   0x00000496   Code   RO         3364    .text               ip.o
    0x0801a29a   0x00000002   PAD
    0x0801a29c   0x000002f8   Code   RO         3388    .text               ip_addr.o
    0x0801a594   0x00000e76   Code   RO         3417    .text               etharp.o
    0x0801b40a   0x00000002   PAD
    0x0801b40c   0x00000788   Code   RO         3441    .text               ethernetif.o
    0x0801bb94   0x00001850   Code   RO         3482    .text               udp_connect.o
    0x0801d3e4   0x000011b4   Code   RO         4117    .text               httpd.o
    0x0801e598   0x00000108   Code   RO         4193    .text               fs.o
    0x0801e6a0   0x00000eac   Code   RO         4221    .text               httpd_cgi_ssi.o
    0x0801f54c   0x00000002   Code   RO         4267    .text               c_w.l(use_no_semi_2.o)
    0x0801f54e   0x00000002   PAD
    0x0801f550   0x00000018   Code   RO         4273    .text               c_w.l(noretval__2printf.o)
    0x0801f568   0x00000028   Code   RO         4275    .text               c_w.l(noretval__2sprintf.o)
    0x0801f590   0x00000068   Code   RO         4277    .text               c_w.l(__printf.o)
    0x0801f5f8   0x00000078   Code   RO         4279    .text               c_w.l(_printf_dec.o)
    0x0801f670   0x00000024   Code   RO         4304    .text               c_w.l(strstr.o)
    0x0801f694   0x00000058   Code   RO         4306    .text               c_w.l(memcmp.o)
    0x0801f6ec   0x0000003e   Code   RO         4308    .text               c_w.l(strlen.o)
    0x0801f72a   0x0000008a   Code   RO         4310    .text               c_w.l(rt_memcpy_v6.o)
    0x0801f7b4   0x00000064   Code   RO         4312    .text               c_w.l(rt_memcpy_w.o)
    0x0801f818   0x00000044   Code   RO         4314    .text               c_w.l(rt_memclr.o)
    0x0801f85c   0x0000004e   Code   RO         4316    .text               c_w.l(rt_memclr_w.o)
    0x0801f8aa   0x00000006   Code   RO         4318    .text               c_w.l(heapauxi.o)
    0x0801f8b0   0x00000002   Code   RO         4362    .text               c_w.l(use_no_semi.o)
    0x0801f8b2   0x00000016   Code   RO         4365    .text               c_w.l(_rserrno.o)
    0x0801f8c8   0x000000b2   Code   RO         4367    .text               c_w.l(_printf_intcommon.o)
    0x0801f97a   0x0000041a   Code   RO         4369    .text               c_w.l(_printf_fp_dec.o)
    0x0801fd94   0x00000030   Code   RO         4371    .text               c_w.l(_printf_char_common.o)
    0x0801fdc4   0x0000000a   Code   RO         4373    .text               c_w.l(_sputc.o)
    0x0801fdce   0x00000002   PAD
    0x0801fdd0   0x00000024   Code   RO         4375    .text               c_w.l(_printf_char_file.o)
    0x0801fdf4   0x00000008   Code   RO         4465    .text               c_w.l(rt_locale_intlibspace.o)
    0x0801fdfc   0x00000008   Code   RO         4470    .text               c_w.l(rt_errno_addr_intlibspace.o)
    0x0801fe04   0x0000008a   Code   RO         4472    .text               c_w.l(lludiv10.o)
    0x0801fe8e   0x00000002   PAD
    0x0801fe90   0x00000080   Code   RO         4474    .text               c_w.l(_printf_fp_infnan.o)
    0x0801ff10   0x000000dc   Code   RO         4478    .text               c_w.l(bigflt0.o)
    0x0801ffec   0x00000008   Code   RO         4503    .text               c_w.l(ferror.o)
    0x0801fff4   0x00000008   Code   RO         4514    .text               c_w.l(libspace.o)
    0x0801fffc   0x0000004a   Code   RO         4517    .text               c_w.l(sys_stackheap_outer.o)
    0x08020046   0x0000000c   Code   RO         4519    .text               c_w.l(exit.o)
    0x08020052   0x0000003e   Code   RO         4481    CL$$btod_d2e        c_w.l(btod.o)
    0x08020090   0x00000046   Code   RO         4483    CL$$btod_d2e_denorm_low  c_w.l(btod.o)
    0x080200d6   0x00000060   Code   RO         4482    CL$$btod_d2e_norm_op1  c_w.l(btod.o)
    0x08020136   0x00000338   Code   RO         4491    CL$$btod_div_common  c_w.l(btod.o)
    0x0802046e   0x000000c6   Code   RO         4488    CL$$btod_e2e        c_w.l(btod.o)
    0x08020534   0x00000028   Code   RO         4485    CL$$btod_ediv       c_w.l(btod.o)
    0x0802055c   0x00000028   Code   RO         4484    CL$$btod_emul       c_w.l(btod.o)
    0x08020584   0x00000244   Code   RO         4490    CL$$btod_mult_common  c_w.l(btod.o)
    0x080207c8   0x00000030   Code   RO         4415    i.__ARM_fpclassify  m_wm.l(fpclassify.o)
    0x080207f8   0x00000026   Code   RO         4417    i.__ARM_fpclassifyf  m_wm.l(fpclassifyf.o)
    0x0802081e   0x00000002   PAD
    0x08020820   0x00000360   Code   RO         4336    i.__hardfp_asin     m_wm.l(asin.o)
    0x08020b80   0x00000250   Code   RO         4350    i.__hardfp_atan2f   m_wm.l(atan2f.o)
    0x08020dd0   0x000000f8   Code   RO         4433    i.__kernel_poly     m_wm.l(poly.o)
    0x08020ec8   0x00000014   Code   RO         4396    i.__mathlib_dbl_infnan  m_wm.l(dunder.o)
    0x08020edc   0x00000004   PAD
    0x08020ee0   0x00000020   Code   RO         4398    i.__mathlib_dbl_invalid  m_wm.l(dunder.o)
    0x08020f00   0x00000020   Code   RO         4401    i.__mathlib_dbl_underflow  m_wm.l(dunder.o)
    0x08020f20   0x00000006   Code   RO         4421    i.__mathlib_flt_infnan2  m_wm.l(funder.o)
    0x08020f26   0x00000002   PAD
    0x08020f28   0x00000010   Code   RO         4425    i.__mathlib_flt_underflow  m_wm.l(funder.o)
    0x08020f38   0x00000018   Code   RO         4411    i.fabs              m_wm.l(fabs.o)
    0x08020f50   0x0000006e   Code   RO         4437    i.sqrt              m_wm.l(sqrt.o)
    0x08020fbe   0x00000002   PAD
    0x08020fc0   0x0000002c   Code   RO         4508    locale$$code        c_w.l(lc_numeric_c.o)
    0x08020fec   0x00000018   Code   RO         4378    x$fpl$basic         fz_wm.l(basic.o)
    0x08021004   0x00000150   Code   RO         4380    x$fpl$dadd          fz_wm.l(daddsub_clz.o)
    0x08021154   0x00000018   Code   RO         4386    x$fpl$dcmpinf       fz_wm.l(dcmpi.o)
    0x0802116c   0x000002b0   Code   RO         4323    x$fpl$ddiv          fz_wm.l(ddiv.o)
    0x0802141c   0x00000078   Code   RO         4326    x$fpl$dleqf         fz_wm.l(dleqf.o)
    0x08021494   0x00000154   Code   RO         4328    x$fpl$dmul          fz_wm.l(dmul.o)
    0x080215e8   0x0000009c   Code   RO         4388    x$fpl$dnaninf       fz_wm.l(dnaninf.o)
    0x08021684   0x0000000c   Code   RO         4390    x$fpl$dretinf       fz_wm.l(dretinf.o)
    0x08021690   0x0000006c   Code   RO         4330    x$fpl$drleqf        fz_wm.l(drleqf.o)
    0x080216fc   0x00000016   Code   RO         4381    x$fpl$drsb          fz_wm.l(daddsub_clz.o)
    0x08021712   0x00000002   PAD
    0x08021714   0x00000198   Code   RO         4510    x$fpl$dsqrt         fz_wm.l(dsqrt_umaal.o)
    0x080218ac   0x000001d4   Code   RO         4382    x$fpl$dsub          fz_wm.l(daddsub_clz.o)
    0x08021a80   0x00000056   Code   RO         4332    x$fpl$f2d           fz_wm.l(f2d.o)
    0x08021ad6   0x0000008c   Code   RO         4392    x$fpl$fnaninf       fz_wm.l(fnaninf.o)
    0x08021b62   0x0000000a   Code   RO         4576    x$fpl$fpinit        fz_wm.l(fpinit.o)
    0x08021b6c   0x00000004   Code   RO         4334    x$fpl$printf1       fz_wm.l(printf1.o)
    0x08021b70   0x00000000   Code   RO         4394    x$fpl$usenofp       fz_wm.l(usenofp.o)
    0x08021b70   0x00000030   Data   RO          966    .constdata          spansion.o
    0x08021ba0   0x00000036   Data   RO         1234    .constdata          stm32f4_spi.o
    0x08021bd6   0x000000b8   Data   RO         1348    .constdata          serial.o
    0x08021c8e   0x000000ac   Data   RO         1370    .constdata          spi_bus.o
    0x08021d3a   0x00000002   PAD
    0x08021d3c   0x00000050   Data   RO         1386    .constdata          cmd.o
    0x08021d8c   0x0000000e   Data   RO         1617    .constdata          msh.o
    0x08021d9a   0x00000060   Data   RO         1663    .constdata          shell.o
    0x08021dfa   0x000000a8   Data   RO         1707    .constdata          device.o
    0x08021ea2   0x00000016   Data   RO         1722    .constdata          idle.o
    0x08021eb8   0x000001d7   Data   RO         1740    .constdata          ipc.o
    0x0802208f   0x00000122   Data   RO         1772    .constdata          kservice.o
    0x080221b1   0x00000046   Data   RO         1792    .constdata          mem.o
    0x080221f7   0x0000003e   Data   RO         1817    .constdata          mempool.o
    0x08022235   0x0000005e   Data   RO         1833    .constdata          object.o
    0x08022293   0x00000034   Data   RO         1853    .constdata          scheduler.o
    0x080222c7   0x000000aa   Data   RO         1879    .constdata          thread.o
    0x08022371   0x0000005c   Data   RO         1896    .constdata          timer_1.o
    0x080223cd   0x00000013   Data   RO         1955    .constdata          cpuport.o
    0x080223e0   0x00000040   Data   RO         2835    .constdata          sockets.o
    0x08022420   0x000000b3   Data   RO         2935    .constdata          sys_arch.o
    0x080224d3   0x00000001   PAD
    0x080224d4   0x0000001c   Data   RO         3066    .constdata          memp.o
    0x080224f0   0x00000050   Data   RO         3198    .constdata          tcp.o
    0x08022540   0x00000008   Data   RO         3390    .constdata          ip_addr.o
    0x08022548   0x0000000c   Data   RO         3419    .constdata          etharp.o
    0x08022554   0x00000041   Data   RO         3443    .constdata          ethernetif.o
    0x08022595   0x00000003   PAD
    0x08022598   0x000008b0   Data   RO         3484    .constdata          udp_connect.o
    0x08022e48   0x00000030   Data   RO         4119    .constdata          httpd.o
    0x08022e78   0x00003c8c   Data   RO         4195    .constdata          fs.o
    0x08026b04   0x000000c8   Data   RO         4222    .constdata          httpd_cgi_ssi.o
    0x08026bcc   0x00000004   PAD
    0x08026bd0   0x00000050   Data   RO         4339    .constdata          m_wm.l(asin.o)
    0x08026c20   0x00000094   Data   RO         4479    .constdata          c_w.l(bigflt0.o)
    0x08026cb4   0x00000089   Data   RO            5    .conststring        startup.o
    0x08026d3d   0x00000003   PAD
    0x08026d40   0x0000002b   Data   RO          967    .conststring        spansion.o
    0x08026d6b   0x00000001   PAD
    0x08026d6c   0x000001ad   Data   RO         1387    .conststring        cmd.o
    0x08026f19   0x00000003   PAD
    0x08026f1c   0x000000ed   Data   RO         1793    .conststring        mem.o
    0x08027009   0x00000003   PAD
    0x0802700c   0x00000075   Data   RO         3199    .conststring        tcp.o
    0x08027081   0x00000003   PAD
    0x08027084   0x00000055   Data   RO         3251    .conststring        tcp_out.o
    0x080270d9   0x00000003   PAD
    0x080270dc   0x00000044   Data   RO         3420    .conststring        etharp.o
    0x08027120   0x00000072   Data   RO         4120    .conststring        httpd.o
    0x08027192   0x00000002   PAD
    0x08027194   0x0000009e   Data   RO         4223    .conststring        httpd_cgi_ssi.o
    0x08027232   0x000003f5   Data   RO         1388    .rodata.name        cmd.o
    0x08027627   0x00000021   Data   RO         1618    .rodata.name        msh.o
    0x08027648   0x00000027   Data   RO         1795    .rodata.name        mem.o
    0x0802766f   0x00000001   PAD
    0x08027670   0x00000144   Data   RO         1389    FSymTab             cmd.o
    0x080277b4   0x0000000c   Data   RO         1619    FSymTab             msh.o
    0x080277c0   0x0000000c   Data   RO         1796    FSymTab             mem.o
    0x080277cc   0x00000020   Data   RO         4646    Region$$Table       anon$$obj.o
    0x080277ec   0x0000001c   Data   RO         4507    locale$$data        c_w.l(lc_numeric_c.o)


    Execution Region RW_IRAM1 (Base: 0x20000000, Size: 0x0000e610, Max: 0x00020000, ABSOLUTE, COMPRESSED[0x00000124])

    Base Addr    Size         Type   Attr      Idx    E Section Name        Object

    0x20000000   0x00000018   Data   RW          873    .data               interface.o
    0x20000018   0x00000018   Data   RW          923    .data               fpga_upgrade.o
    0x20000030   0x00000010   Data   RW         1083    .data               uart_protocol.o
    0x20000040   0x00000009   Data   RW         1235    .data               stm32f4_spi.o
    0x20000049   0x00000003   PAD
    0x2000004c   0x0000001c   Data   RW         1262    .data               stm32f4_uart.o
    0x20000068   0x00000001   Data   RW         1293    .data               timer.o
    0x20000069   0x00000003   PAD
    0x2000006c   0x00000004   Data   RW         1664    .data               shell.o
    0x20000070   0x00000010   Data   RW         1679    .data               symbol.o
    0x20000080   0x00000004   Data   RW         1693    .data               clock.o
    0x20000084   0x00000001   Data   RW         1756    .data               irq.o
    0x20000085   0x00000003   PAD
    0x20000088   0x0000000c   Data   RW         1773    .data               kservice.o
    0x20000094   0x00000018   Data   RW         1794    .data               mem.o
    0x200000ac   0x00000090   Data   RW         1834    .data               object.o
    0x2000013c   0x00000018   Data   RW         1854    .data               scheduler.o
    0x20000154   0x0000000c   Data   RW         1897    .data               timer_1.o
    0x20000160   0x00000014   Data   RW         1924    .data               system_stm32f4xx.o
    0x20000174   0x00000010   Data   RW         1956    .data               cpuport.o
    0x20000184   0x00000004   Data   RW         1998    .data               rand.o
    0x20000188   0x00000104   Data   RW         2024    .data               string.o
    0x2000028c   0x00000010   Data   RW         2413    .data               stm32f4xx_rcc.o
    0x2000029c   0x00000010   Data   RW         2608    .data               stm32f4x7_eth.o
    0x200002ac   0x00000008   Data   RW         2836    .data               sockets.o
    0x200002b4   0x0000000c   Data   RW         2879    .data               tcpip.o
    0x200002c0   0x0000000a   Data   RW         2936    .data               sys_arch.o
    0x200002ca   0x00000002   PAD
    0x200002cc   0x00000009   Data   RW         3100    .data               netif.o
    0x200002d5   0x00000001   Data   RW         3139    .data               pbuf.o
    0x200002d6   0x00000002   PAD
    0x200002d8   0x00000004   Data   RW         3166    .data               raw.o
    0x200002dc   0x00000024   Data   RW         3200    .data               tcp.o
    0x20000300   0x00000020   Data   RW         3226    .data               tcp_in.o
    0x20000320   0x00000008   Data   RW         3264    .data               timers.o
    0x20000328   0x00000008   Data   RW         3290    .data               udp.o
    0x20000330   0x0000000c   Data   RW         3326    .data               igmp.o
    0x2000033c   0x00000012   Data   RW         3365    .data               ip.o
    0x2000034e   0x00000001   Data   RW         3421    .data               etharp.o
    0x2000034f   0x00000016   Data   RW         3485    .data               udp_connect.o
    0x20000365   0x00000003   PAD
    0x20000368   0x00000024   Data   RW         4121    .data               httpd.o
    0x2000038c   0x00000048   Data   RW         4224    .data               httpd_cgi_ssi.o
    0x200003d4   0x00000e70   Zero   RW          166    .bss                application.o
    0x20001244   0x00000064   Zero   RW          872    .bss                interface.o
    0x200012a8   0x00000411   Zero   RW          902    .bss                queue.o
    0x200016b9   0x00000003   PAD
    0x200016bc   0x00000064   Zero   RW          922    .bss                fpga_upgrade.o
    0x20001720   0x00000410   Zero   RW          996    .bss                upgrade.o
    0x20001b30   0x00000515   Zero   RW         1024    .bss                ymodem.o
    0x20002045   0x00000003   PAD
    0x20002048   0x00000078   Zero   RW         1053    .bss                antenna_sw.o
    0x200020c0   0x00000148   Zero   RW         1082    .bss                uart_protocol.o
    0x20002208   0x000000e0   Zero   RW         1144    .bss                stm32f4_eth.o
    0x200022e8   0x000000e4   Zero   RW         1233    .bss                stm32f4_spi.o
    0x200023cc   0x000004c0   Zero   RW         1261    .bss                stm32f4_uart.o
    0x2000288c   0x00000004   PAD
    0x20002890   0x00000931   Zero   RW         1662    .bss                shell.o
    0x200031c1   0x00000007   PAD
    0x200031c8   0x000001b0   Zero   RW         1721    .bss                idle.o
    0x20003378   0x00000080   Zero   RW         1771    .bss                kservice.o
    0x200033f8   0x00000038   Zero   RW         1791    .bss                mem.o
    0x20003430   0x00000100   Zero   RW         1852    .bss                scheduler.o
    0x20003530   0x0000799c   Zero   RW         2607    .bss                stm32f4x7_eth.o
    0x2000aecc   0x00000060   Zero   RW         2834    .bss                sockets.o
    0x2000af2c   0x00000010   Zero   RW         3225    .bss                tcp_in.o
    0x2000af3c   0x00000010   Zero   RW         3389    .bss                ip_addr.o
    0x2000af4c   0x000000c8   Zero   RW         3418    .bss                etharp.o
    0x2000b014   0x00001354   Zero   RW         3442    .bss                ethernetif.o
    0x2000c368   0x00001758   Zero   RW         3483    .bss                udp_connect.o
    0x2000dac0   0x00000400   Zero   RW         4118    .bss                httpd.o
    0x2000dec0   0x000000f0   Zero   RW         4194    .bss                fs.o
    0x2000dfb0   0x00000060   Zero   RW         4515    .bss                c_w.l(libspace.o)
    0x2000e010   0x00000200   Zero   RW         1914    HEAP                startup_stm32f40xx.o
    0x2000e210   0x00000400   Zero   RW         1913    STACK               startup_stm32f40xx.o


==============================================================================

Image component sizes


      Code (inc. data)   RO Data    RW Data    ZI Data      Debug   Object Name

       468         34          0          0        120       1083   antenna_sw.o
      3164        812          0          0          0      27373   api_lib.o
      6196       1194          0          0          0      20494   api_msg.o
       704        356          0          0       3696      51259   application.o
       420         20          0          0          0      27909   board.o
        96          4          0          4          0       1628   clock.o
      2960       1292       1846          0          0      18238   cmd.o
       348          4          0          0          0       1605   common.o
       272         24          0          0          0        788   context_rvds.o
       400        188         19         16          0       3679   cpuport.o
        62          0          0          0          0       1226   def.o
       828        132        168          0          0       4733   device.o
      3702        580         80          1        200      10211   etharp.o
      1928        568         65          0       4948       6821   ethernetif.o
       352         78          0         24        100       3248   fpga_upgrade.o
       264          8      15500          0        240       4534   fs.o
      4532        708        162         36       1024      22758   httpd.o
      3756        274        358         72          0       9329   httpd_cgi_ssi.o
       972        322          0          0          0       2367   icmp.o
       288         68         22          0        432       2704   idle.o
      1708        358          0         12          0       6742   igmp.o
       628         54          0          0          0       2961   inet_chksum.o
        32          0          0          0          0      15008   init.o
       548         80          0         24        100       5759   interface.o
      1174        120          0         18          0       7028   ip.o
       760         58          8          0         16       9619   ip_addr.o
      5376        356        471          0          0      18923   ipc.o
        72          6          0          1          0       1474   irq.o
      2636        230        290         12        128      11692   kservice.o
      1100        312          0          0          0       4360   mcu_api.o
      2100        548        358         24         56       5021   mem.o
         0          0         28          0          0       1113   memp.o
       968        102         62          0          0       4467   mempool.o
       224         20          0          0          0       2009   misc.o
       788        100         59          0          0       4928   msh.o
       908        292          0          0          0       7781   netbuf.o
       768         72          0          9          0      15490   netif.o
       248          0          0          0          0       6764   netifapi.o
       620        130         94        144          0       4593   object.o
      4020       1128          0          1          0       9915   pbuf.o
       224         40          0          0       1041       2597   queue.o
        76          6          0          4          0       1136   rand.o
       520         84          0          4          0       3361   raw.o
       528         58         52         24        256       4208   scheduler.o
      1948        364        184          0          0       5225   serial.o
      2364        250         96          4       2353       5045   shell.o
      7612        646         64          8         96      35561   sockets.o
      1188        422         91          0          0       4646   spansion.o
      1340        112        172          0          0       5403   spi_bus.o
       460         90          0          0          0       3132   spi_flash.o
       404        262        137          0          0     329611   startup.o
        64         26        392          0       1536        840   startup_stm32f40xx.o
       226          0          0          0          0       1847   stdlib.o
      1504        234          0          0        224       8650   stm32f4_eth.o
        18          0          0          0          0        945   stm32f4_it.o
      1320        182         54          9        228       4325   stm32f4_spi.o
       464         48          0         28       1216       4753   stm32f4_uart.o
      4252         94          0         16      31132      21197   stm32f4x7_eth.o
       936         32          0          0          0       6481   stm32f4xx_dma.o
       660         44          0          0          0       4285   stm32f4xx_gpio.o
      1628         52          0         16          0      13180   stm32f4xx_rcc.o
      1152         36          0          0          0       7033   stm32f4xx_spi.o
       148         12          0          0          0       1925   stm32f4xx_syscfg.o
      3234         60          0          0          0      22488   stm32f4xx_tim.o
      1108         34          0          0          0       7984   stm32f4xx_usart.o
      1964         12          0        260          0      10224   string.o
         0          0          0         16          0       4345   symbol.o
      1872        354        179         10          0      16021   sys_arch.o
       528         46          0         20          0       1903   system_stm32f4xx.o
      5244       1082        197         36          0      21944   tcp.o
      7376       1016          0         32         16      16043   tcp_in.o
      4650        816         85          0          0       9719   tcp_out.o
       960        140          0         12          0      18162   tcpip.o
      1440        206        170          0          0       7421   thread.o
       140         10          0          1          0       1059   timer.o
      1084         90         92         12          0       6265   timer_1.o
       668        128          0          8          0       3231   timers.o
      2348        320          0         16        328       5457   uart_protocol.o
      1452        152          0          8          0       7098   udp.o
      6224       1046       2224         22       5976      36623   udp_connect.o
       116         60          0          0       1040       1343   upgrade.o
      1836        112          0          0       1301       6847   ymodem.o

    ----------------------------------------------------------------------
    127684      19410      23840        980      57820    1047197   Object Totals
         0          0         32          0          0          0   (incl. Generated)
        14          0         29         16         17          0   (incl. Padding)

    ----------------------------------------------------------------------

      Code (inc. data)   RO Data    RW Data    ZI Data      Debug   Library Member Name

        90          0          0          0          0          0   __dczerorl2.o
         8          0          0          0          0         68   __main.o
       104          0          0          0          0         84   __printf.o
         0          0          0          0          0          0   __rtentry.o
        12          0          0          0          0          0   __rtentry2.o
         6          0          0          0          0          0   __rtentry4.o
        52          8          0          0          0          0   __scatter.o
        28          0          0          0          0          0   __scatter_zi.o
        48          6          0          0          0         96   _printf_char_common.o
        36          4          0          0          0         80   _printf_char_file.o
         6          0          0          0          0          0   _printf_d.o
       120         16          0          0          0         92   _printf_dec.o
         6          0          0          0          0          0   _printf_f.o
      1050          0          0          0          0        216   _printf_fp_dec.o
       128         16          0          0          0         84   _printf_fp_infnan.o
       178          0          0          0          0         88   _printf_intcommon.o
         0          0          0          0          0          0   _printf_percent.o
         4          0          0          0          0          0   _printf_percent_end.o
        22          0          0          0          0        100   _rserrno.o
        10          0          0          0          0         68   _sputc.o
       220          4        148          0          0         96   bigflt0.o
      1910        128          0          0          0        672   btod.o
        12          0          0          0          0         72   exit.o
         8          0          0          0          0         68   ferror.o
         6          0          0          0          0        152   heapauxi.o
        44         10         28          0          0         76   lc_numeric_c.o
         2          0          0          0          0          0   libinit.o
        22          0          0          0          0          0   libinit2.o
         2          0          0          0          0          0   libshutdown.o
         2          0          0          0          0          0   libshutdown2.o
         8          4          0          0         96         68   libspace.o
       138          0          0          0          0         80   lludiv10.o
        88          0          0          0          0         76   memcmp.o
        24          4          0          0          0         84   noretval__2printf.o
        40          6          0          0          0         84   noretval__2sprintf.o
         8          4          0          0          0         68   rt_errno_addr_intlibspace.o
         8          4          0          0          0         68   rt_locale_intlibspace.o
        68          0          0          0          0         68   rt_memclr.o
        78          0          0          0          0         80   rt_memclr_w.o
       138          0          0          0          0         68   rt_memcpy_v6.o
       100          0          0          0          0         80   rt_memcpy_w.o
         2          0          0          0          0          0   rtexit.o
        10          0          0          0          0          0   rtexit2.o
        62          0          0          0          0         76   strlen.o
        36          0          0          0          0         80   strstr.o
        74          0          0          0          0         80   sys_stackheap_outer.o
         2          0          0          0          0         68   use_no_semi.o
         2          0          0          0          0         68   use_no_semi_2.o
        24          0          0          0          0        164   basic.o
       826         16          0          0          0        492   daddsub_clz.o
        24          0          0          0          0        116   dcmpi.o
       688        140          0          0          0        256   ddiv.o
       120          4          0          0          0        140   dleqf.o
       340         12          0          0          0        152   dmul.o
       156          4          0          0          0        140   dnaninf.o
        12          0          0          0          0        116   dretinf.o
       108          0          0          0          0        128   drleqf.o
       408         56          0          0          0        168   dsqrt_umaal.o
        86          4          0          0          0        132   f2d.o
       140          4          0          0          0        132   fnaninf.o
        10          0          0          0          0        116   fpinit.o
         4          0          0          0          0        116   printf1.o
         0          0          0          0          0          0   usenofp.o
       864         94         80          0          0        280   asin.o
       592         90          0          0          0        184   atan2f.o
        84         16          0          0          0        372   dunder.o
        24          0          0          0          0        124   fabs.o
        48          0          0          0          0        124   fpclassify.o
        38          0          0          0          0        116   fpclassifyf.o
        22          6          0          0          0        232   funder.o
       248          0          0          0          0        152   poly.o
       110          0          0          0          0        148   sqrt.o

    ----------------------------------------------------------------------
     10020        660        256          0         96       7408   Library Totals
        22          0          0          0          0          0   (incl. Padding)

    ----------------------------------------------------------------------

      Code (inc. data)   RO Data    RW Data    ZI Data      Debug   Library Name

      5022        214        176          0         96       3308   c_w.l
      2946        240          0          0          0       2368   fz_wm.l
      2030        206         80          0          0       1732   m_wm.l

    ----------------------------------------------------------------------
     10020        660        256          0         96       7408   Library Totals

    ----------------------------------------------------------------------

==============================================================================


      Code (inc. data)   RO Data    RW Data    ZI Data      Debug   

    137704      20070      24096        980      57916    1034433   Grand Totals
    137704      20070      24096        292      57916    1034433   ELF Image Totals (compressed)
    137704      20070      24096        292          0          0   ROM Totals

==============================================================================

    Total RO  Size (Code + RO Data)               161800 ( 158.01kB)
    Total RW  Size (RW Data + ZI Data)             58896 (  57.52kB)
    Total ROM Size (Code + RO Data + RW Data)     162092 ( 158.29kB)

==============================================================================

